; ModuleID = 'wrapper.3993989137375699-cgu.0'
source_filename = "wrapper.3993989137375699-cgu.0"
target datalayout = "e-m:e-p270:32:32-p271:32:32-p272:64:64-i64:64-f80:128-n8:16:32:64-S128"
target triple = "x86_64-unknown-linux-gnu"

%"core::fmt::Arguments<'_>" = type { { ptr, i64 }, { ptr, i64 }, { ptr, i64 } }
%"bindings::bindings_raw::authenticate_message" = type <{ [8 x i8], i32, %"bindings::bindings_raw::security_buffer", %"bindings::bindings_raw::security_buffer", %"bindings::bindings_raw::security_buffer", %"bindings::bindings_raw::security_buffer", %"bindings::bindings_raw::security_buffer", %"bindings::bindings_raw::security_buffer", i32, %"bindings::bindings_raw::__IncompleteArrayField<i8>" }>
%"bindings::bindings_raw::security_buffer" = type <{ i16, i16, i32 }>
%"bindings::bindings_raw::__IncompleteArrayField<i8>" = type { %"core::marker::PhantomData<i8>", [0 x i8] }
%"core::marker::PhantomData<i8>" = type {}
%"bindings::bindings_raw::ksmbd_conn" = type { ptr, ptr, ptr, i32, [1 x i32], %"bindings::bindings_raw::mutex", i32, i32, ptr, ptr, ptr, ptr, { ptr, ptr }, %"bindings::bindings_raw::xarray", i64, %"bindings::bindings_raw::atomic_t", %"bindings::bindings_raw::atomic_t", i32, i32, %"bindings::bindings_raw::spinlock", [1 x i32], %"bindings::bindings_raw::wait_queue_head", %"bindings::bindings_raw::wait_queue_head", %"bindings::bindings_raw::spinlock", [1 x i32], { ptr, ptr }, { ptr, ptr }, i32, [1 x i32], %"bindings::bindings_raw::ksmbd_stats", [16 x i8], %"bindings::bindings_raw::ntlmssp_auth", %"bindings::bindings_raw::spinlock", { ptr, ptr }, ptr, i8, [3 x i8], i32, i32, i8, %"bindings::bindings_raw::__BindgenBitfieldUnit<[u8; 1], u8>", i16, i16, i16, [2 x i16], ptr, ptr, { ptr, ptr }, %"bindings::bindings_raw::__kernel_sockaddr_storage", %"bindings::bindings_raw::ida", i16, i16, i8, i8, i16, i8, [7 x i8] }
%"bindings::bindings_raw::mutex" = type { %"bindings::bindings_raw::atomic64_t", %"bindings::bindings_raw::raw_spinlock", %"bindings::bindings_raw::optimistic_spin_queue", { ptr, ptr } }
%"bindings::bindings_raw::atomic64_t" = type { i64 }
%"bindings::bindings_raw::raw_spinlock" = type { %"bindings::bindings_raw::qspinlock" }
%"bindings::bindings_raw::qspinlock" = type { %"bindings::bindings_raw::qspinlock__bindgen_ty_1" }
%"bindings::bindings_raw::qspinlock__bindgen_ty_1" = type { [1 x i32] }
%"bindings::bindings_raw::optimistic_spin_queue" = type { %"bindings::bindings_raw::atomic_t" }
%"bindings::bindings_raw::xarray" = type { %"bindings::bindings_raw::spinlock", i32, ptr }
%"bindings::bindings_raw::atomic_t" = type { i32 }
%"bindings::bindings_raw::wait_queue_head" = type { %"bindings::bindings_raw::spinlock", [1 x i32], { ptr, ptr } }
%"bindings::bindings_raw::ksmbd_stats" = type { %"bindings::bindings_raw::atomic_t", [1 x i32], %"bindings::bindings_raw::atomic64_t" }
%"bindings::bindings_raw::ntlmssp_auth" = type { i8, [3 x i8], i32, i32, [16 x i8], [8 x i8] }
%"bindings::bindings_raw::spinlock" = type { i32 }
%"bindings::bindings_raw::__BindgenBitfieldUnit<[u8; 1], u8>" = type { [1 x i8], [0 x i8] }
%"bindings::bindings_raw::__kernel_sockaddr_storage" = type { %"bindings::bindings_raw::__kernel_sockaddr_storage__bindgen_ty_1" }
%"bindings::bindings_raw::__kernel_sockaddr_storage__bindgen_ty_1" = type { [16 x i64] }
%"bindings::bindings_raw::ida" = type { %"bindings::bindings_raw::xarray" }
%"bindings::bindings_raw::ksmbd_session" = type { i64, i16, [16 x i8], [6 x i8], ptr, i32, i32, i8, i8, i8, [1 x i8], i32, ptr, [40 x i8], { ptr, ptr }, %"bindings::bindings_raw::xarray", %"bindings::bindings_raw::xarray", %"bindings::bindings_raw::ida", %"bindings::bindings_raw::xarray", [32 x i8], [32 x i8], [16 x i8], %"bindings::bindings_raw::ksmbd_file_table" }
%"bindings::bindings_raw::ksmbd_file_table" = type { %"bindings::bindings_raw::rwlock_t", ptr }
%"bindings::bindings_raw::rwlock_t" = type { %"bindings::bindings_raw::qrwlock" }
%"bindings::bindings_raw::qrwlock" = type { %"bindings::bindings_raw::qrwlock__bindgen_ty_1", %"bindings::bindings_raw::qspinlock" }
%"bindings::bindings_raw::qrwlock__bindgen_ty_1" = type { [1 x i32] }
%"bindings::bindings_raw::nls_table" = type { ptr, ptr, ptr, ptr, ptr, ptr, ptr, ptr }
%"core::alloc::AllocError" = type {}
%"bindings::bindings_raw::ksmbd_login_response" = type { i32, i32, i32, [48 x i8], i16, i16, [18 x i8], [2 x i8], [16 x i32] }

@__rust_no_alloc_shim_is_unstable = external dso_local global i8
@alloc_513570631223a12912d85da2bec3b15a = private unnamed_addr constant <{}> zeroinitializer, align 8
@alloc_ffa3cdb3ae88e54a1cc225f31dd07672 = private unnamed_addr constant <{ ptr, [8 x i8] }> <{ ptr @alloc_513570631223a12912d85da2bec3b15a, [8 x i8] zeroinitializer }>, align 8
@_RNvNtNtCsfFwfLe9nonL_6kernel5print14format_strings4INFO = external dso_local global [10 x i8]
@alloc_ff2b180ab3b38696fb0455389d3acde6 = private unnamed_addr constant <{ [8 x i8] }> <{ [8 x i8] c"wrapper\00" }>, align 1
@alloc_5f55955de67e57c79064b537689facea = private unnamed_addr constant <{ [43 x i8] }> <{ [43 x i8] c"called `Option::unwrap()` on a `None` value" }>, align 1
@alloc_49def33be51f73068d673ce1b8a16f75 = private unnamed_addr constant <{ [19 x i8] }> <{ [19 x i8] c"fs/ksmbd/wrapper.rs" }>, align 1
@alloc_ee30dd10da58269ffb9796216f7aa7ea = private unnamed_addr constant <{ ptr, [16 x i8] }> <{ ptr @alloc_49def33be51f73068d673ce1b8a16f75, [16 x i8] c"\13\00\00\00\00\00\00\00\E7\00\00\005\00\00\00" }>, align 8
@alloc_00ae4b301f7fab8ac9617c03fcbd7274 = private unnamed_addr constant <{ [43 x i8] }> <{ [43 x i8] c"called `Result::unwrap()` on an `Err` value" }>, align 1
@vtable.0 = private constant <{ ptr, [16 x i8], ptr }> <{ ptr @_RINvNtCsgh59pMgT09I_4core3ptr13drop_in_placeNtNtB4_5alloc10AllocErrorECs4WtFLvQmBW7_7wrapper, [16 x i8] c"\00\00\00\00\00\00\00\00\01\00\00\00\00\00\00\00", ptr @_RNvXs7_NtCsgh59pMgT09I_4core5allocNtB5_10AllocErrorNtNtB7_3fmt5Debug3fmt }>, align 8, !dbg !0
@alloc_50df4e624e4aca5f24cd37afa41d7058 = private unnamed_addr constant <{ ptr, [16 x i8] }> <{ ptr @alloc_49def33be51f73068d673ce1b8a16f75, [16 x i8] c"\13\00\00\00\00\00\00\00\F3\00\00\00X\00\00\00" }>, align 8
@alloc_790fa16537318cdcacda1138f4fabd38 = private unnamed_addr constant <{ ptr, [16 x i8] }> <{ ptr @alloc_49def33be51f73068d673ce1b8a16f75, [16 x i8] c"\13\00\00\00\00\00\00\00\FC\00\00\00\08\00\00\00" }>, align 8

; core::ptr::drop_in_place::<core::alloc::AllocError>
; Function Attrs: inlinehint mustprogress nofree norecurse noredzone nosync nounwind willreturn memory(none)
define internal void @_RINvNtCsgh59pMgT09I_4core3ptr13drop_in_placeNtNtB4_5alloc10AllocErrorECs4WtFLvQmBW7_7wrapper(ptr noalias nocapture nonnull align 1 %_1) unnamed_addr #0 !dbg !106 {
start:
  call void @llvm.dbg.value(metadata ptr poison, metadata !112, metadata !DIExpression()), !dbg !115
  ret void, !dbg !116
}

; <u16 as core::fmt::Debug>::fmt
; Function Attrs: inlinehint noredzone nounwind
define internal noundef zeroext i1 @_RNvXs1l_NtNtCsgh59pMgT09I_4core3fmt3numtNtB8_5Debug3fmt(ptr noalias noundef readonly align 2 dereferenceable(2) %self, ptr noalias noundef align 8 dereferenceable(64) %f) unnamed_addr #1 !dbg !117 {
start:
  call void @llvm.dbg.value(metadata ptr %self, metadata !179, metadata !DIExpression()), !dbg !181
  call void @llvm.dbg.value(metadata ptr %f, metadata !180, metadata !DIExpression()), !dbg !181
; call <core::fmt::Formatter>::debug_lower_hex
  %_3 = tail call noundef zeroext i1 @_RNvMs5_NtCsgh59pMgT09I_4core3fmtNtB5_9Formatter15debug_lower_hex(ptr noalias noundef nonnull readonly align 8 dereferenceable(64) %f) #11, !dbg !182
  br i1 %_3, label %bb2, label %bb3, !dbg !182

bb3:                                              ; preds = %start
; call <core::fmt::Formatter>::debug_upper_hex
  %_5 = tail call noundef zeroext i1 @_RNvMs5_NtCsgh59pMgT09I_4core3fmtNtB5_9Formatter15debug_upper_hex(ptr noalias noundef nonnull readonly align 8 dereferenceable(64) %f) #11, !dbg !183
  br i1 %_5, label %bb5, label %bb6, !dbg !183

bb2:                                              ; preds = %start
; call <u16 as core::fmt::LowerHex>::fmt
  %0 = tail call noundef zeroext i1 @_RNvXsO_NtNtCsgh59pMgT09I_4core3fmt3numtNtB7_8LowerHex3fmt(ptr noalias noundef nonnull readonly align 2 dereferenceable(2) %self, ptr noalias noundef nonnull align 8 dereferenceable(64) %f) #11, !dbg !184
  br label %bb8, !dbg !184

bb8:                                              ; preds = %bb5, %bb6, %bb2
  %.0.in = phi i1 [ %0, %bb2 ], [ %2, %bb5 ], [ %1, %bb6 ]
  ret i1 %.0.in, !dbg !185

bb6:                                              ; preds = %bb3
; call <u16 as core::fmt::Display>::fmt
  %1 = tail call noundef zeroext i1 @_RNvXs1_NtNtNtCsgh59pMgT09I_4core3fmt3num3imptNtB9_7Display3fmt(ptr noalias noundef nonnull readonly align 2 dereferenceable(2) %self, ptr noalias noundef nonnull align 8 dereferenceable(64) %f) #11, !dbg !186
  br label %bb8, !dbg !186

bb5:                                              ; preds = %bb3
; call <u16 as core::fmt::UpperHex>::fmt
  %2 = tail call noundef zeroext i1 @_RNvXsP_NtNtCsgh59pMgT09I_4core3fmt3numtNtB7_8UpperHex3fmt(ptr noalias noundef nonnull readonly align 2 dereferenceable(2) %self, ptr noalias noundef nonnull align 8 dereferenceable(64) %f) #11, !dbg !187
  br label %bb8, !dbg !187
}

; <*mut bindings::bindings_raw::ntlmv2_resp as core::fmt::Debug>::fmt
; Function Attrs: noredzone nounwind
define internal noundef zeroext i1 @_RNvXsl_NtCsgh59pMgT09I_4core3fmtONtNtCs68AuNRdv55k_8bindings12bindings_raw11ntlmv2_respNtB5_5Debug3fmtCs4WtFLvQmBW7_7wrapper(ptr noalias nocapture noundef readonly align 8 dereferenceable(8) %self, ptr noalias noundef align 8 dereferenceable(64) %f) unnamed_addr #2 !dbg !188 {
start:
  call void @llvm.dbg.value(metadata ptr %self, metadata !214, metadata !DIExpression()), !dbg !219
  call void @llvm.dbg.value(metadata ptr %self, metadata !210, metadata !DIExpression()), !dbg !221
  call void @llvm.dbg.value(metadata ptr %f, metadata !222, metadata !DIExpression()), !dbg !231
  call void @llvm.dbg.value(metadata ptr %f, metadata !218, metadata !DIExpression()), !dbg !219
  call void @llvm.dbg.value(metadata ptr %f, metadata !211, metadata !DIExpression()), !dbg !221
  %_5 = load ptr, ptr %self, align 8, !dbg !233, !noundef !15
  call void @llvm.dbg.value(metadata ptr undef, metadata !230, metadata !DIExpression()), !dbg !231
  call void @llvm.dbg.value(metadata ptr %_5, metadata !234, metadata !DIExpression()), !dbg !243
  %_6 = ptrtoint ptr %_5 to i64, !dbg !245
; call core::fmt::pointer_fmt_inner
  %0 = tail call noundef zeroext i1 @_RNvNtCsgh59pMgT09I_4core3fmt17pointer_fmt_inner(i64 noundef %_6, ptr noalias noundef nonnull align 8 dereferenceable(64) %f) #11, !dbg !246
  ret i1 %0, !dbg !247
}

; Function Attrs: noredzone nounwind
define dso_local noundef i32 @rust_ksmbd_decode_ntlmssp_auth_blob(ptr noundef %authblob, i32 noundef %blob_len, ptr noundef %conn, ptr noundef %sess) unnamed_addr #2 !dbg !248 {
start:
  %0 = alloca %"core::fmt::Arguments<'_>", align 8
  %1 = alloca %"core::fmt::Arguments<'_>", align 8
  %2 = alloca %"core::fmt::Arguments<'_>", align 8
  %3 = alloca %"core::fmt::Arguments<'_>", align 8
  %_86 = alloca ptr, align 8
  %_83 = alloca [1 x { ptr, ptr }], align 8
  %_72 = alloca [1 x { ptr, ptr }], align 8
  %_63 = alloca i16, align 2
  %_60 = alloca [1 x { ptr, ptr }], align 8
  %_48 = alloca ptr, align 8
  %_45 = alloca [1 x { ptr, ptr }], align 8
  %domain_name = alloca ptr, align 8
  call void @llvm.dbg.value(metadata ptr %authblob, metadata !16617, metadata !DIExpression()), !dbg !16732
  call void @llvm.dbg.value(metadata i32 %blob_len, metadata !16618, metadata !DIExpression()), !dbg !16732
  call void @llvm.dbg.value(metadata ptr %conn, metadata !16619, metadata !DIExpression()), !dbg !16732
  call void @llvm.dbg.value(metadata ptr %sess, metadata !16620, metadata !DIExpression()), !dbg !16732
  call void @llvm.lifetime.start.p0(i64 8, ptr nonnull %domain_name), !dbg !16733
  %_7 = icmp slt i32 %blob_len, 64, !dbg !16734
  br i1 %_7, label %bb37, label %bb2, !dbg !16734

bb2:                                              ; preds = %start
  %_11.sroa.0.0.copyload = load i64, ptr %authblob, align 1, !dbg !16735
  call void @llvm.dbg.value(metadata ptr undef, metadata !16736, metadata !DIExpression()), !dbg !16749
  call void @llvm.dbg.value(metadata ptr undef, metadata !16753, metadata !DIExpression()), !dbg !16765
  call void @llvm.dbg.value(metadata ptr undef, metadata !16759, metadata !DIExpression()), !dbg !16766
  call void @llvm.dbg.value(metadata ptr undef, metadata !16746, metadata !DIExpression()), !dbg !16749
  call void @llvm.dbg.value(metadata ptr undef, metadata !16754, metadata !DIExpression()), !dbg !16765
  call void @llvm.dbg.value(metadata ptr undef, metadata !16760, metadata !DIExpression()), !dbg !16766
  %.not = icmp eq i64 %_11.sroa.0.0.copyload, 22609615381091406, !dbg !16767
  br i1 %.not, label %bb4, label %bb37, !dbg !16764

bb37:                                             ; preds = %bb32, %bb25, %bb29, %bb26, %bb13, %bb4, %bb2, %start, %bb11
  %.0 = phi i32 [ %10, %bb11 ], [ -22, %start ], [ -22, %bb2 ], [ -22, %bb4 ], [ %_93, %bb13 ], [ -22, %bb26 ], [ -12, %bb29 ], [ %_93, %bb25 ], [ %_93, %bb32 ], !dbg !16768
  call void @llvm.lifetime.end.p0(i64 8, ptr nonnull %domain_name), !dbg !16769
  ret i32 %.0, !dbg !16770

bb4:                                              ; preds = %bb2
  %4 = getelementptr inbounds %"bindings::bindings_raw::authenticate_message", ptr %authblob, i64 0, i32 3, !dbg !16771
  %5 = getelementptr inbounds %"bindings::bindings_raw::authenticate_message", ptr %authblob, i64 0, i32 3, i32 2, !dbg !16771
  %nt_off = load i32, ptr %5, align 1, !dbg !16771, !noundef !15
  call void @llvm.dbg.value(metadata i32 %nt_off, metadata !16623, metadata !DIExpression()), !dbg !16772
  %nt_len = load i16, ptr %4, align 1, !dbg !16773, !noundef !15
  call void @llvm.dbg.value(metadata i16 %nt_len, metadata !16627, metadata !DIExpression()), !dbg !16774
  %6 = getelementptr inbounds %"bindings::bindings_raw::authenticate_message", ptr %authblob, i64 0, i32 4, !dbg !16775
  %7 = getelementptr inbounds %"bindings::bindings_raw::authenticate_message", ptr %authblob, i64 0, i32 4, i32 2, !dbg !16775
  %dn_off = load i32, ptr %7, align 1, !dbg !16775, !noundef !15
  call void @llvm.dbg.value(metadata i32 %dn_off, metadata !16625, metadata !DIExpression()), !dbg !16776
  %dn_len = load i16, ptr %6, align 1, !dbg !16777, !noundef !15
  call void @llvm.dbg.value(metadata i16 %dn_len, metadata !16629, metadata !DIExpression()), !dbg !16778
  %_24 = zext i16 %dn_len to i32, !dbg !16779
  %_22 = add i32 %dn_off, %_24, !dbg !16780
  %_20 = icmp sgt i32 %_22, %blob_len, !dbg !16781
  %_29 = zext i16 %nt_len to i32, !dbg !16781
  %_27 = add i32 %nt_off, %_29, !dbg !16781
  %_25 = icmp sgt i32 %_27, %blob_len, !dbg !16781
  %_19.0 = or i1 %_25, %_20, !dbg !16781
  br i1 %_19.0, label %bb37, label %bb9, !dbg !16781

bb9:                                              ; preds = %bb4
  %_23 = zext i32 %dn_off to i64, !dbg !16782
  call void @llvm.dbg.value(metadata ptr %authblob, metadata !16783, metadata !DIExpression()), !dbg !16789
  call void @llvm.dbg.value(metadata i64 %_23, metadata !16788, metadata !DIExpression()), !dbg !16789
  %_31 = getelementptr inbounds i8, ptr %authblob, i64 %_23, !dbg !16791
  %8 = getelementptr inbounds %"bindings::bindings_raw::ksmbd_conn", ptr %conn, i64 0, i32 10, !dbg !16792
  %_36 = load ptr, ptr %8, align 8, !dbg !16792, !noundef !15
  %_30 = tail call noundef ptr @smb_strndup_from_utf16(ptr noundef nonnull %_31, i32 noundef %_24, i1 noundef zeroext true, ptr noundef %_36) #11, !dbg !16793
  call void @llvm.dbg.value(metadata ptr %_30, metadata !16621, metadata !DIExpression()), !dbg !16794
  store ptr %_30, ptr %domain_name, align 8, !dbg !16795
  %9 = icmp eq ptr %_30, null, !dbg !16796
  br i1 %9, label %bb11, label %bb13, !dbg !16796

bb11:                                             ; preds = %bb9
  %_38 = tail call noundef i64 @rust_helper_PTR_ERR(ptr noundef null) #11, !dbg !16797
  %10 = trunc i64 %_38 to i32, !dbg !16797
  br label %bb37, !dbg !16798

bb13:                                             ; preds = %bb9
  call void @llvm.lifetime.start.p0(i64 16, ptr nonnull %_45), !dbg !16799
  call void @llvm.lifetime.start.p0(i64 8, ptr nonnull %_48), !dbg !16800
  call void @llvm.dbg.value(metadata ptr %authblob, metadata !16801, metadata !DIExpression()), !dbg !16810
  %count7 = zext i32 %nt_off to i64, !dbg !16812
  call void @llvm.dbg.value(metadata i64 %count7, metadata !16809, metadata !DIExpression()), !dbg !16810
  %_49 = getelementptr inbounds i8, ptr %authblob, i64 %count7, !dbg !16813
  store ptr %_49, ptr %_48, align 8, !dbg !16800
  store ptr %_48, ptr %_45, align 8, !dbg !16799
  %11 = getelementptr inbounds { ptr, ptr }, ptr %_45, i64 0, i32 1, !dbg !16799
  store ptr @_RNvXsl_NtCsgh59pMgT09I_4core3fmtONtNtCs68AuNRdv55k_8bindings12bindings_raw11ntlmv2_respNtB5_5Debug3fmtCs4WtFLvQmBW7_7wrapper, ptr %11, align 8, !dbg !16799
  call void @llvm.dbg.value(metadata ptr @alloc_ffa3cdb3ae88e54a1cc225f31dd07672, metadata !16633, metadata !DIExpression(DW_OP_LLVM_fragment, 0, 64)), !dbg !16814
  call void @llvm.dbg.value(metadata i64 1, metadata !16633, metadata !DIExpression(DW_OP_LLVM_fragment, 64, 64)), !dbg !16814
  call void @llvm.dbg.value(metadata ptr %_45, metadata !16633, metadata !DIExpression(DW_OP_LLVM_fragment, 128, 64)), !dbg !16814
  call void @llvm.dbg.value(metadata i64 1, metadata !16633, metadata !DIExpression(DW_OP_LLVM_fragment, 192, 64)), !dbg !16814
  call void @llvm.dbg.value(metadata ptr null, metadata !16633, metadata !DIExpression(DW_OP_LLVM_fragment, 256, 64)), !dbg !16814
  call void @llvm.dbg.value(metadata i64 undef, metadata !16633, metadata !DIExpression(DW_OP_LLVM_fragment, 320, 64)), !dbg !16814
  call void @llvm.lifetime.start.p0(i64 48, ptr nonnull %3), !dbg !16815
  store ptr @alloc_ffa3cdb3ae88e54a1cc225f31dd07672, ptr %3, align 8, !dbg !16815
  %args.sroa.2.0..sroa_idx = getelementptr inbounds i8, ptr %3, i64 8, !dbg !16815
  store i64 1, ptr %args.sroa.2.0..sroa_idx, align 8, !dbg !16815
  %args.sroa.3.0..sroa_idx = getelementptr inbounds i8, ptr %3, i64 16, !dbg !16815
  store ptr %_45, ptr %args.sroa.3.0..sroa_idx, align 8, !dbg !16815
  %args.sroa.4.0..sroa_idx = getelementptr inbounds i8, ptr %3, i64 24, !dbg !16815
  store i64 1, ptr %args.sroa.4.0..sroa_idx, align 8, !dbg !16815
  %args.sroa.5.0..sroa_idx = getelementptr inbounds i8, ptr %3, i64 32, !dbg !16815
  store ptr null, ptr %args.sroa.5.0..sroa_idx, align 8, !dbg !16815
; call kernel::print::call_printk
  call void @_RNvNtCsfFwfLe9nonL_6kernel5print11call_printk(ptr noalias noundef nonnull readonly align 1 dereferenceable(10) @_RNvNtNtCsfFwfLe9nonL_6kernel5print14format_strings4INFO, ptr noalias noundef nonnull readonly align 1 @alloc_ff2b180ab3b38696fb0455389d3acde6, i64 noundef 8, ptr noalias nocapture noundef nonnull readonly dereferenceable(48) %3) #11, !dbg !16815
  call void @llvm.lifetime.end.p0(i64 48, ptr nonnull %3), !dbg !16815
  call void @llvm.lifetime.end.p0(i64 8, ptr nonnull %_48), !dbg !16799
  call void @llvm.lifetime.end.p0(i64 16, ptr nonnull %_45), !dbg !16799
  call void @llvm.lifetime.start.p0(i64 16, ptr nonnull %_60), !dbg !16816
  call void @llvm.lifetime.start.p0(i64 2, ptr nonnull %_63), !dbg !16817
  %12 = add i16 %nt_len, -16, !dbg !16817
  store i16 %12, ptr %_63, align 2, !dbg !16817
  store ptr %_63, ptr %_60, align 8, !dbg !16816
  %13 = getelementptr inbounds { ptr, ptr }, ptr %_60, i64 0, i32 1, !dbg !16816
  store ptr @_RNvXs1l_NtNtCsgh59pMgT09I_4core3fmt3numtNtB8_5Debug3fmt, ptr %13, align 8, !dbg !16816
  call void @llvm.dbg.value(metadata ptr @alloc_ffa3cdb3ae88e54a1cc225f31dd07672, metadata !16708, metadata !DIExpression(DW_OP_LLVM_fragment, 0, 64)), !dbg !16818
  call void @llvm.dbg.value(metadata i64 1, metadata !16708, metadata !DIExpression(DW_OP_LLVM_fragment, 64, 64)), !dbg !16818
  call void @llvm.dbg.value(metadata ptr %_60, metadata !16708, metadata !DIExpression(DW_OP_LLVM_fragment, 128, 64)), !dbg !16818
  call void @llvm.dbg.value(metadata i64 1, metadata !16708, metadata !DIExpression(DW_OP_LLVM_fragment, 192, 64)), !dbg !16818
  call void @llvm.dbg.value(metadata ptr null, metadata !16708, metadata !DIExpression(DW_OP_LLVM_fragment, 256, 64)), !dbg !16818
  call void @llvm.dbg.value(metadata i64 undef, metadata !16708, metadata !DIExpression(DW_OP_LLVM_fragment, 320, 64)), !dbg !16818
  call void @llvm.lifetime.start.p0(i64 48, ptr nonnull %2), !dbg !16819
  store ptr @alloc_ffa3cdb3ae88e54a1cc225f31dd07672, ptr %2, align 8, !dbg !16819
  %args1.sroa.2.0..sroa_idx = getelementptr inbounds i8, ptr %2, i64 8, !dbg !16819
  store i64 1, ptr %args1.sroa.2.0..sroa_idx, align 8, !dbg !16819
  %args1.sroa.3.0..sroa_idx = getelementptr inbounds i8, ptr %2, i64 16, !dbg !16819
  store ptr %_60, ptr %args1.sroa.3.0..sroa_idx, align 8, !dbg !16819
  %args1.sroa.4.0..sroa_idx = getelementptr inbounds i8, ptr %2, i64 24, !dbg !16819
  store i64 1, ptr %args1.sroa.4.0..sroa_idx, align 8, !dbg !16819
  %args1.sroa.5.0..sroa_idx = getelementptr inbounds i8, ptr %2, i64 32, !dbg !16819
  store ptr null, ptr %args1.sroa.5.0..sroa_idx, align 8, !dbg !16819
; call kernel::print::call_printk
  call void @_RNvNtCsfFwfLe9nonL_6kernel5print11call_printk(ptr noalias noundef nonnull readonly align 1 dereferenceable(10) @_RNvNtNtCsfFwfLe9nonL_6kernel5print14format_strings4INFO, ptr noalias noundef nonnull readonly align 1 @alloc_ff2b180ab3b38696fb0455389d3acde6, i64 noundef 8, ptr noalias nocapture noundef nonnull readonly dereferenceable(48) %2) #11, !dbg !16819
  call void @llvm.lifetime.end.p0(i64 48, ptr nonnull %2), !dbg !16819
  call void @llvm.lifetime.end.p0(i64 2, ptr nonnull %_63), !dbg !16816
  call void @llvm.lifetime.end.p0(i64 16, ptr nonnull %_60), !dbg !16816
  call void @llvm.lifetime.start.p0(i64 16, ptr nonnull %_72), !dbg !16820
  store ptr %domain_name, ptr %_72, align 8, !dbg !16820
  %14 = getelementptr inbounds { ptr, ptr }, ptr %_72, i64 0, i32 1, !dbg !16820
  store ptr @_RNvXsl_NtCsgh59pMgT09I_4core3fmtONtNtCs68AuNRdv55k_8bindings12bindings_raw11ntlmv2_respNtB5_5Debug3fmtCs4WtFLvQmBW7_7wrapper, ptr %14, align 8, !dbg !16820
  call void @llvm.dbg.value(metadata ptr @alloc_ffa3cdb3ae88e54a1cc225f31dd07672, metadata !16711, metadata !DIExpression(DW_OP_LLVM_fragment, 0, 64)), !dbg !16821
  call void @llvm.dbg.value(metadata i64 1, metadata !16711, metadata !DIExpression(DW_OP_LLVM_fragment, 64, 64)), !dbg !16821
  call void @llvm.dbg.value(metadata ptr %_72, metadata !16711, metadata !DIExpression(DW_OP_LLVM_fragment, 128, 64)), !dbg !16821
  call void @llvm.dbg.value(metadata i64 1, metadata !16711, metadata !DIExpression(DW_OP_LLVM_fragment, 192, 64)), !dbg !16821
  call void @llvm.dbg.value(metadata ptr null, metadata !16711, metadata !DIExpression(DW_OP_LLVM_fragment, 256, 64)), !dbg !16821
  call void @llvm.dbg.value(metadata i64 undef, metadata !16711, metadata !DIExpression(DW_OP_LLVM_fragment, 320, 64)), !dbg !16821
  call void @llvm.lifetime.start.p0(i64 48, ptr nonnull %1), !dbg !16822
  store ptr @alloc_ffa3cdb3ae88e54a1cc225f31dd07672, ptr %1, align 8, !dbg !16822
  %args2.sroa.2.0..sroa_idx = getelementptr inbounds i8, ptr %1, i64 8, !dbg !16822
  store i64 1, ptr %args2.sroa.2.0..sroa_idx, align 8, !dbg !16822
  %args2.sroa.3.0..sroa_idx = getelementptr inbounds i8, ptr %1, i64 16, !dbg !16822
  store ptr %_72, ptr %args2.sroa.3.0..sroa_idx, align 8, !dbg !16822
  %args2.sroa.4.0..sroa_idx = getelementptr inbounds i8, ptr %1, i64 24, !dbg !16822
  store i64 1, ptr %args2.sroa.4.0..sroa_idx, align 8, !dbg !16822
  %args2.sroa.5.0..sroa_idx = getelementptr inbounds i8, ptr %1, i64 32, !dbg !16822
  store ptr null, ptr %args2.sroa.5.0..sroa_idx, align 8, !dbg !16822
; call kernel::print::call_printk
  call void @_RNvNtCsfFwfLe9nonL_6kernel5print11call_printk(ptr noalias noundef nonnull readonly align 1 dereferenceable(10) @_RNvNtNtCsfFwfLe9nonL_6kernel5print14format_strings4INFO, ptr noalias noundef nonnull readonly align 1 @alloc_ff2b180ab3b38696fb0455389d3acde6, i64 noundef 8, ptr noalias nocapture noundef nonnull readonly dereferenceable(48) %1) #11, !dbg !16822
  call void @llvm.lifetime.end.p0(i64 48, ptr nonnull %1), !dbg !16822
  call void @llvm.lifetime.end.p0(i64 16, ptr nonnull %_72), !dbg !16820
  call void @llvm.lifetime.start.p0(i64 16, ptr nonnull %_83), !dbg !16823
  call void @llvm.lifetime.start.p0(i64 8, ptr nonnull %_86), !dbg !16824
  %_88 = getelementptr inbounds %"bindings::bindings_raw::ksmbd_conn", ptr %conn, i64 0, i32 31, i32 5, !dbg !16824
  call void @llvm.dbg.value(metadata ptr %_88, metadata !16825, metadata !DIExpression(DW_OP_LLVM_fragment, 0, 64)), !dbg !16838
  call void @llvm.dbg.value(metadata i64 8, metadata !16825, metadata !DIExpression(DW_OP_LLVM_fragment, 64, 64)), !dbg !16838
  store ptr %_88, ptr %_86, align 8, !dbg !16840
  store ptr %_86, ptr %_83, align 8, !dbg !16823
  %15 = getelementptr inbounds { ptr, ptr }, ptr %_83, i64 0, i32 1, !dbg !16823
  store ptr @_RNvXsl_NtCsgh59pMgT09I_4core3fmtONtNtCs68AuNRdv55k_8bindings12bindings_raw11ntlmv2_respNtB5_5Debug3fmtCs4WtFLvQmBW7_7wrapper, ptr %15, align 8, !dbg !16823
  call void @llvm.dbg.value(metadata ptr @alloc_ffa3cdb3ae88e54a1cc225f31dd07672, metadata !16714, metadata !DIExpression(DW_OP_LLVM_fragment, 0, 64)), !dbg !16841
  call void @llvm.dbg.value(metadata i64 1, metadata !16714, metadata !DIExpression(DW_OP_LLVM_fragment, 64, 64)), !dbg !16841
  call void @llvm.dbg.value(metadata ptr %_83, metadata !16714, metadata !DIExpression(DW_OP_LLVM_fragment, 128, 64)), !dbg !16841
  call void @llvm.dbg.value(metadata i64 1, metadata !16714, metadata !DIExpression(DW_OP_LLVM_fragment, 192, 64)), !dbg !16841
  call void @llvm.dbg.value(metadata ptr null, metadata !16714, metadata !DIExpression(DW_OP_LLVM_fragment, 256, 64)), !dbg !16841
  call void @llvm.dbg.value(metadata i64 undef, metadata !16714, metadata !DIExpression(DW_OP_LLVM_fragment, 320, 64)), !dbg !16841
  call void @llvm.lifetime.start.p0(i64 48, ptr nonnull %0), !dbg !16842
  store ptr @alloc_ffa3cdb3ae88e54a1cc225f31dd07672, ptr %0, align 8, !dbg !16842
  %args3.sroa.2.0..sroa_idx = getelementptr inbounds i8, ptr %0, i64 8, !dbg !16842
  store i64 1, ptr %args3.sroa.2.0..sroa_idx, align 8, !dbg !16842
  %args3.sroa.3.0..sroa_idx = getelementptr inbounds i8, ptr %0, i64 16, !dbg !16842
  store ptr %_83, ptr %args3.sroa.3.0..sroa_idx, align 8, !dbg !16842
  %args3.sroa.4.0..sroa_idx = getelementptr inbounds i8, ptr %0, i64 24, !dbg !16842
  store i64 1, ptr %args3.sroa.4.0..sroa_idx, align 8, !dbg !16842
  %args3.sroa.5.0..sroa_idx = getelementptr inbounds i8, ptr %0, i64 32, !dbg !16842
  store ptr null, ptr %args3.sroa.5.0..sroa_idx, align 8, !dbg !16842
; call kernel::print::call_printk
  call void @_RNvNtCsfFwfLe9nonL_6kernel5print11call_printk(ptr noalias noundef nonnull readonly align 1 dereferenceable(10) @_RNvNtNtCsfFwfLe9nonL_6kernel5print14format_strings4INFO, ptr noalias noundef nonnull readonly align 1 @alloc_ff2b180ab3b38696fb0455389d3acde6, i64 noundef 8, ptr noalias nocapture noundef nonnull readonly dereferenceable(48) %0) #11, !dbg !16842
  call void @llvm.lifetime.end.p0(i64 48, ptr nonnull %0), !dbg !16842
  call void @llvm.lifetime.end.p0(i64 8, ptr nonnull %_86), !dbg !16823
  call void @llvm.lifetime.end.p0(i64 16, ptr nonnull %_83), !dbg !16823
  %_98 = zext i16 %12 to i32, !dbg !16843
  %_100 = load ptr, ptr %domain_name, align 8, !dbg !16844, !noundef !15
  call void @llvm.dbg.value(metadata ptr %_100, metadata !16621, metadata !DIExpression()), !dbg !16794
  %_93 = call noundef i32 @ksmbd_auth_ntlmv2(ptr noundef nonnull %conn, ptr noundef %sess, ptr noundef nonnull %_49, i32 noundef %_98, ptr noundef %_100, ptr noundef nonnull %_88) #11, !dbg !16845
  call void @llvm.dbg.value(metadata i32 %_93, metadata !16631, metadata !DIExpression()), !dbg !16768
  %_106 = load ptr, ptr %domain_name, align 8, !dbg !16846, !noundef !15
  call void @llvm.dbg.value(metadata ptr %_106, metadata !16621, metadata !DIExpression()), !dbg !16794
  call void @kfree(ptr noundef %_106) #11, !dbg !16847
  %_107 = icmp slt i32 %_93, 0, !dbg !16848
  br i1 %_107, label %bb37, label %bb25, !dbg !16848

bb25:                                             ; preds = %bb13
  %16 = getelementptr inbounds %"bindings::bindings_raw::ksmbd_conn", ptr %conn, i64 0, i32 31, i32 2, !dbg !16849
  %_109 = load i32, ptr %16, align 4, !dbg !16849, !noundef !15
  %_108 = and i32 %_109, 1073741824, !dbg !16849
  %17 = icmp eq i32 %_108, 0, !dbg !16850
  br i1 %17, label %bb37, label %bb26, !dbg !16850

bb26:                                             ; preds = %bb25
  %18 = getelementptr inbounds %"bindings::bindings_raw::authenticate_message", ptr %authblob, i64 0, i32 7, !dbg !16851
  %19 = getelementptr inbounds %"bindings::bindings_raw::authenticate_message", ptr %authblob, i64 0, i32 7, i32 2, !dbg !16851
  %sess_key_off = load i32, ptr %19, align 1, !dbg !16851, !noundef !15
  call void @llvm.dbg.value(metadata i32 %sess_key_off, metadata !16728, metadata !DIExpression()), !dbg !16852
  %sess_key_len = load i16, ptr %18, align 1, !dbg !16853, !noundef !15
  call void @llvm.dbg.value(metadata i16 %sess_key_len, metadata !16854, metadata !DIExpression()), !dbg !16863
  call void @llvm.dbg.value(metadata i16 %sess_key_len, metadata !16730, metadata !DIExpression()), !dbg !16865
  %_115 = zext i16 %sess_key_len to i32, !dbg !16866
  %_114 = add i32 %sess_key_off, %_115, !dbg !16867
  %_112 = icmp sgt i32 %_114, %blob_len, !dbg !16868
  br i1 %_112, label %bb37, label %bb29, !dbg !16868

bb29:                                             ; preds = %bb26
  %_117 = call noundef ptr @__kmalloc(i64 noundef 1032, i32 noundef 3264) #11, !dbg !16869
  call void @llvm.dbg.value(metadata ptr %_117, metadata !16717, metadata !DIExpression()), !dbg !16870
  %20 = icmp eq ptr %_117, null, !dbg !16871
  br i1 %20, label %bb37, label %bb32, !dbg !16871

bb32:                                             ; preds = %bb29
  %_124 = getelementptr inbounds %"bindings::bindings_raw::ksmbd_session", ptr %sess, i64 0, i32 13, !dbg !16872
  %_119 = call noundef i32 @cifs_arc4_setkey(ptr noundef nonnull %_117, ptr noundef nonnull %_124, i32 noundef 16) #11, !dbg !16873
  call void @llvm.dbg.value(metadata ptr %authblob, metadata !16874, metadata !DIExpression()), !dbg !16878
  %count25 = zext i32 %sess_key_off to i64, !dbg !16880
  call void @llvm.dbg.value(metadata i64 %count25, metadata !16877, metadata !DIExpression()), !dbg !16878
  %_132 = getelementptr inbounds i8, ptr %authblob, i64 %count25, !dbg !16881
  call void @cifs_arc4_crypt(ptr noundef nonnull %_117, ptr noundef nonnull %_124, ptr noundef nonnull %_132, i32 noundef %_115) #11, !dbg !16882
  call void @kfree_sensitive(ptr noundef nonnull %_117) #11, !dbg !16883
  br label %bb37, !dbg !16884
}

; wrapper::rust_nls_nullsize
; Function Attrs: noredzone nounwind
define dso_local noundef i32 @_RNvCs4WtFLvQmBW7_7wrapper17rust_nls_nullsize(ptr nocapture noundef readonly %codepage) unnamed_addr #2 !dbg !16885 {
start:
  %tmp = alloca [6 x i8], align 1
  call void @llvm.dbg.value(metadata ptr %codepage, metadata !16890, metadata !DIExpression()), !dbg !16897
  call void @llvm.dbg.declare(metadata ptr %tmp, metadata !16893, metadata !DIExpression()), !dbg !16898
  call void @llvm.lifetime.start.p0(i64 6, ptr nonnull %tmp), !dbg !16899
  call void @llvm.memset.p0.i64(ptr noundef nonnull align 1 dereferenceable(6) %tmp, i8 0, i64 6, i1 false), !dbg !16900
  %0 = getelementptr inbounds %"bindings::bindings_raw::nls_table", ptr %codepage, i64 0, i32 2, !dbg !16901
  %1 = load ptr, ptr %0, align 8, !dbg !16901, !noundef !15
  call void @llvm.dbg.value(metadata ptr %1, metadata !16902, metadata !DIExpression()), !dbg !16919
  %2 = icmp eq ptr %1, null, !dbg !16921
  br i1 %2, label %bb5, label %bb7, !dbg !16922

bb5:                                              ; preds = %start
; call core::panicking::panic
  tail call void @_RNvNtCsgh59pMgT09I_4core9panicking5panic(ptr noalias noundef nonnull readonly align 1 @alloc_5f55955de67e57c79064b537689facea, i64 noundef 43, ptr noalias noundef nonnull readonly align 8 dereferenceable(24) @alloc_ee30dd10da58269ffb9796216f7aa7ea) #12, !dbg !16923
  unreachable, !dbg !16923

bb7:                                              ; preds = %start
  call void @llvm.dbg.value(metadata ptr %1, metadata !16895, metadata !DIExpression()), !dbg !16924
  %_6 = call noundef i32 %1(i16 noundef zeroext 0, ptr noundef nonnull %tmp, i32 noundef 6) #11, !dbg !16925
  call void @llvm.dbg.value(metadata i32 %_6, metadata !16891, metadata !DIExpression()), !dbg !16926
  %_6. = call i32 @llvm.smax.i32(i32 %_6, i32 1), !dbg !16924
  call void @llvm.lifetime.end.p0(i64 6, ptr nonnull %tmp), !dbg !16927
  ret i32 %_6., !dbg !16928
}

; Function Attrs: noredzone nounwind
define dso_local noundef ptr @rust_ksmbd_alloc_user(ptr noundef %resp) unnamed_addr #2 !dbg !16929 {
start:
  %_42 = alloca %"core::alloc::AllocError", align 1
  call void @llvm.dbg.declare(metadata ptr undef, metadata !16953, metadata !DIExpression()), !dbg !16980
  call void @llvm.dbg.declare(metadata ptr undef, metadata !16982, metadata !DIExpression()), !dbg !17007
  call void @llvm.dbg.value(metadata ptr %resp, metadata !16946, metadata !DIExpression()), !dbg !17009
  %0 = getelementptr inbounds %"bindings::bindings_raw::ksmbd_login_response", ptr %resp, i64 0, i32 5, !dbg !17010
  %_5 = load i16, ptr %0, align 2, !dbg !17010, !noundef !15
  call void @llvm.dbg.value(metadata i16 %_5, metadata !17011, metadata !DIExpression(DW_OP_LLVM_convert, 16, DW_ATE_unsigned, DW_OP_LLVM_convert, 64, DW_ATE_unsigned, DW_OP_stack_value)), !dbg !17020
  call void @llvm.dbg.value(metadata i16 %_5, metadata !17022, metadata !DIExpression(DW_OP_LLVM_convert, 16, DW_ATE_unsigned, DW_OP_LLVM_convert, 64, DW_ATE_unsigned, DW_OP_stack_value)), !dbg !17067
  call void @llvm.dbg.declare(metadata ptr undef, metadata !17030, metadata !DIExpression()), !dbg !17069
  call void @llvm.dbg.declare(metadata ptr undef, metadata !17070, metadata !DIExpression()), !dbg !17120
  call void @llvm.dbg.value(metadata i64 8, metadata !17090, metadata !DIExpression(DW_OP_LLVM_fragment, 64, 64)), !dbg !17122
  call void @llvm.dbg.value(metadata i64 8, metadata !17090, metadata !DIExpression(DW_OP_LLVM_fragment, 0, 64)), !dbg !17122
  call void @llvm.dbg.value(metadata ptr undef, metadata !17123, metadata !DIExpression()), !dbg !17147
  call void @llvm.dbg.value(metadata i64 8, metadata !17146, metadata !DIExpression(DW_OP_LLVM_fragment, 0, 64)), !dbg !17147
  call void @llvm.dbg.value(metadata i64 8, metadata !17146, metadata !DIExpression(DW_OP_LLVM_fragment, 64, 64)), !dbg !17147
  call void @llvm.dbg.value(metadata i64 8, metadata !17149, metadata !DIExpression(DW_OP_LLVM_fragment, 0, 64)), !dbg !17170
  call void @llvm.dbg.value(metadata i64 8, metadata !17149, metadata !DIExpression(DW_OP_LLVM_fragment, 64, 64)), !dbg !17170
  call void @llvm.dbg.value(metadata ptr undef, metadata !17155, metadata !DIExpression()), !dbg !17170
  call void @llvm.dbg.value(metadata i1 false, metadata !17156, metadata !DIExpression(DW_OP_LLVM_convert, 1, DW_ATE_unsigned, DW_OP_LLVM_convert, 8, DW_ATE_unsigned, DW_OP_stack_value)), !dbg !17170
  call void @llvm.dbg.value(metadata i64 8, metadata !17157, metadata !DIExpression()), !dbg !17172
  call void @llvm.dbg.value(metadata i64 8, metadata !17173, metadata !DIExpression(DW_OP_LLVM_fragment, 0, 64)), !dbg !17178
  call void @llvm.dbg.value(metadata i64 8, metadata !17173, metadata !DIExpression(DW_OP_LLVM_fragment, 64, 64)), !dbg !17178
  call void @llvm.dbg.value(metadata ptr @__rust_no_alloc_shim_is_unstable, metadata !17180, metadata !DIExpression()), !dbg !17185
  %1 = load volatile i8, ptr @__rust_no_alloc_shim_is_unstable, align 1, !dbg !17187
  %2 = tail call noundef align 8 dereferenceable_or_null(8) ptr @__rust_alloc(i64 noundef 8, i64 noundef 8) #11, !dbg !17188
  call void @llvm.dbg.value(metadata ptr %2, metadata !17189, metadata !DIExpression()), !dbg !17217
  %3 = icmp eq ptr %2, null, !dbg !17219
  br i1 %3, label %bb10, label %bb12, !dbg !17220

bb12:                                             ; preds = %start
  %x3 = zext i16 %_5 to i64, !dbg !17221
  call void @llvm.dbg.value(metadata i64 %x3, metadata !17011, metadata !DIExpression()), !dbg !17020
  call void @llvm.dbg.value(metadata i64 %x3, metadata !17022, metadata !DIExpression()), !dbg !17067
  call void @llvm.dbg.value(metadata ptr %2, metadata !17031, metadata !DIExpression()), !dbg !17222
  call void @llvm.dbg.value(metadata ptr %2, metadata !17223, metadata !DIExpression()), !dbg !17229
  call void @llvm.dbg.value(metadata ptr %2, metadata !17233, metadata !DIExpression()), !dbg !17236
  call void @llvm.dbg.value(metadata i16 %_5, metadata !17228, metadata !DIExpression(DW_OP_LLVM_convert, 16, DW_ATE_unsigned, DW_OP_LLVM_convert, 64, DW_ATE_unsigned, DW_OP_stack_value)), !dbg !17229
  call void @llvm.dbg.value(metadata i16 %_5, metadata !17234, metadata !DIExpression(DW_OP_LLVM_convert, 16, DW_ATE_unsigned, DW_OP_LLVM_convert, 64, DW_ATE_unsigned, DW_OP_stack_value)), !dbg !17236
  store i64 %x3, ptr %2, align 8, !dbg !17237
  call void @llvm.dbg.value(metadata ptr %2, metadata !16977, metadata !DIExpression()), !dbg !17238
  call void @llvm.dbg.value(metadata ptr %2, metadata !16947, metadata !DIExpression()), !dbg !17239
  %_12 = getelementptr inbounds %"bindings::bindings_raw::ksmbd_login_response", ptr %resp, i64 0, i32 3, !dbg !17240
  %_9 = tail call noundef ptr @kstrdup(ptr noundef nonnull %_12, i32 noundef 3264) #11, !dbg !17241
  %_16 = load i16, ptr %0, align 2, !dbg !17242, !noundef !15
  %4 = getelementptr inbounds %"bindings::bindings_raw::ksmbd_login_response", ptr %resp, i64 0, i32 4, !dbg !17243
  %_17 = load i16, ptr %4, align 4, !dbg !17243, !noundef !15
  %5 = getelementptr inbounds %"bindings::bindings_raw::ksmbd_login_response", ptr %resp, i64 0, i32 2, !dbg !17244
  %_18 = load i32, ptr %5, align 4, !dbg !17244, !noundef !15
  %6 = getelementptr inbounds %"bindings::bindings_raw::ksmbd_login_response", ptr %resp, i64 0, i32 1, !dbg !17245
  %_19 = load i32, ptr %6, align 4, !dbg !17245, !noundef !15
  call void @llvm.dbg.value(metadata i16 %_17, metadata !17246, metadata !DIExpression(DW_OP_LLVM_fragment, 0, 16)), !dbg !17253
  call void @llvm.dbg.value(metadata i16 %_17, metadata !17255, metadata !DIExpression(DW_OP_LLVM_fragment, 0, 16)), !dbg !17276
  call void @llvm.dbg.value(metadata i32 %_18, metadata !17246, metadata !DIExpression(DW_OP_LLVM_fragment, 32, 32)), !dbg !17253
  call void @llvm.dbg.value(metadata i32 %_18, metadata !17255, metadata !DIExpression(DW_OP_LLVM_fragment, 32, 32)), !dbg !17276
  call void @llvm.dbg.value(metadata i32 %_19, metadata !17246, metadata !DIExpression(DW_OP_LLVM_fragment, 64, 32)), !dbg !17253
  call void @llvm.dbg.value(metadata i32 %_19, metadata !17255, metadata !DIExpression(DW_OP_LLVM_fragment, 64, 32)), !dbg !17276
  call void @llvm.dbg.value(metadata ptr %_9, metadata !17246, metadata !DIExpression(DW_OP_LLVM_fragment, 128, 64)), !dbg !17253
  call void @llvm.dbg.value(metadata ptr %_9, metadata !17255, metadata !DIExpression(DW_OP_LLVM_fragment, 128, 64)), !dbg !17276
  call void @llvm.dbg.value(metadata i16 %_16, metadata !17246, metadata !DIExpression(DW_OP_LLVM_convert, 16, DW_ATE_unsigned, DW_OP_LLVM_convert, 64, DW_ATE_unsigned, DW_OP_stack_value, DW_OP_LLVM_fragment, 192, 64)), !dbg !17253
  call void @llvm.dbg.value(metadata i16 %_16, metadata !17255, metadata !DIExpression(DW_OP_LLVM_convert, 16, DW_ATE_unsigned, DW_OP_LLVM_convert, 64, DW_ATE_unsigned, DW_OP_stack_value, DW_OP_LLVM_fragment, 192, 64)), !dbg !17276
  call void @llvm.dbg.value(metadata ptr %2, metadata !17246, metadata !DIExpression(DW_OP_LLVM_fragment, 256, 64)), !dbg !17253
  call void @llvm.dbg.value(metadata ptr %2, metadata !17255, metadata !DIExpression(DW_OP_LLVM_fragment, 256, 64)), !dbg !17276
  call void @llvm.dbg.value(metadata i32 0, metadata !17246, metadata !DIExpression(DW_OP_LLVM_fragment, 320, 32)), !dbg !17253
  call void @llvm.dbg.value(metadata i32 0, metadata !17255, metadata !DIExpression(DW_OP_LLVM_fragment, 320, 32)), !dbg !17276
  call void @llvm.dbg.declare(metadata ptr undef, metadata !17260, metadata !DIExpression()), !dbg !17278
  call void @llvm.dbg.declare(metadata ptr undef, metadata !17279, metadata !DIExpression()), !dbg !17313
  call void @llvm.dbg.value(metadata i64 48, metadata !17299, metadata !DIExpression(DW_OP_LLVM_fragment, 64, 64)), !dbg !17315
  call void @llvm.dbg.value(metadata i64 8, metadata !17299, metadata !DIExpression(DW_OP_LLVM_fragment, 0, 64)), !dbg !17315
  call void @llvm.dbg.value(metadata ptr undef, metadata !17123, metadata !DIExpression()), !dbg !17316
  call void @llvm.dbg.value(metadata i64 8, metadata !17146, metadata !DIExpression(DW_OP_LLVM_fragment, 0, 64)), !dbg !17316
  call void @llvm.dbg.value(metadata i64 48, metadata !17146, metadata !DIExpression(DW_OP_LLVM_fragment, 64, 64)), !dbg !17316
  call void @llvm.dbg.value(metadata i64 8, metadata !17149, metadata !DIExpression(DW_OP_LLVM_fragment, 0, 64)), !dbg !17318
  call void @llvm.dbg.value(metadata i64 48, metadata !17149, metadata !DIExpression(DW_OP_LLVM_fragment, 64, 64)), !dbg !17318
  call void @llvm.dbg.value(metadata ptr undef, metadata !17155, metadata !DIExpression()), !dbg !17318
  call void @llvm.dbg.value(metadata i1 false, metadata !17156, metadata !DIExpression(DW_OP_LLVM_convert, 1, DW_ATE_unsigned, DW_OP_LLVM_convert, 8, DW_ATE_unsigned, DW_OP_stack_value)), !dbg !17318
  call void @llvm.dbg.value(metadata i64 48, metadata !17157, metadata !DIExpression()), !dbg !17320
  call void @llvm.dbg.value(metadata i64 8, metadata !17173, metadata !DIExpression(DW_OP_LLVM_fragment, 0, 64)), !dbg !17321
  call void @llvm.dbg.value(metadata i64 48, metadata !17173, metadata !DIExpression(DW_OP_LLVM_fragment, 64, 64)), !dbg !17321
  call void @llvm.dbg.value(metadata ptr @__rust_no_alloc_shim_is_unstable, metadata !17180, metadata !DIExpression()), !dbg !17323
  %7 = load volatile i8, ptr @__rust_no_alloc_shim_is_unstable, align 1, !dbg !17325, !noalias !17326
  %8 = tail call noundef align 8 dereferenceable_or_null(48) ptr @__rust_alloc(i64 noundef 48, i64 noundef 8) #11, !dbg !17329, !noalias !17326
  call void @llvm.dbg.value(metadata ptr %8, metadata !17330, metadata !DIExpression()), !dbg !17354
  %9 = icmp eq ptr %8, null, !dbg !17356
  br i1 %9, label %bb14, label %bb15, !dbg !17357

bb10:                                             ; preds = %start
  call void @llvm.dbg.value(metadata ptr %2, metadata !16977, metadata !DIExpression()), !dbg !17238
; call core::result::unwrap_failed
  call void @_RNvNtCsgh59pMgT09I_4core6result13unwrap_failed(ptr noalias noundef nonnull readonly align 1 @alloc_00ae4b301f7fab8ac9617c03fcbd7274, i64 noundef 43, ptr noundef nonnull align 1 %_42, ptr noalias noundef nonnull readonly align 8 dereferenceable(24) @vtable.0, ptr noalias noundef nonnull readonly align 8 dereferenceable(24) @alloc_50df4e624e4aca5f24cd37afa41d7058) #12, !dbg !17358
  unreachable, !dbg !17358

bb15:                                             ; preds = %bb12
  %_15 = zext i16 %_16 to i64, !dbg !17242
  call void @llvm.dbg.value(metadata i64 %_15, metadata !17246, metadata !DIExpression(DW_OP_LLVM_fragment, 192, 64)), !dbg !17253
  call void @llvm.dbg.value(metadata i64 %_15, metadata !17255, metadata !DIExpression(DW_OP_LLVM_fragment, 192, 64)), !dbg !17276
  call void @llvm.dbg.value(metadata ptr %8, metadata !17261, metadata !DIExpression()), !dbg !17359
  store i16 %_17, ptr %8, align 8, !dbg !17360
  %x.sroa.412.0..sroa_idx = getelementptr inbounds i8, ptr %8, i64 4, !dbg !17360
  store i32 %_18, ptr %x.sroa.412.0..sroa_idx, align 4, !dbg !17360
  %x.sroa.5.0..sroa_idx = getelementptr inbounds i8, ptr %8, i64 8, !dbg !17360
  store i32 %_19, ptr %x.sroa.5.0..sroa_idx, align 8, !dbg !17360
  %x.sroa.613.0..sroa_idx = getelementptr inbounds i8, ptr %8, i64 16, !dbg !17360
  store ptr %_9, ptr %x.sroa.613.0..sroa_idx, align 8, !dbg !17360
  %x.sroa.7.0..sroa_idx = getelementptr inbounds i8, ptr %8, i64 24, !dbg !17360
  store i64 %_15, ptr %x.sroa.7.0..sroa_idx, align 8, !dbg !17360
  %x.sroa.8.0..sroa_idx = getelementptr inbounds i8, ptr %8, i64 32, !dbg !17360
  store ptr %2, ptr %x.sroa.8.0..sroa_idx, align 8, !dbg !17360
  %x.sroa.9.0..sroa_idx = getelementptr inbounds i8, ptr %8, i64 40, !dbg !17360
  store i32 0, ptr %x.sroa.9.0..sroa_idx, align 8, !dbg !17360
  call void @llvm.dbg.value(metadata ptr %8, metadata !17004, metadata !DIExpression()), !dbg !17361
  call void @llvm.dbg.value(metadata ptr %8, metadata !16950, metadata !DIExpression()), !dbg !17362
  %10 = icmp eq ptr %_9, null, !dbg !17363
  br i1 %10, label %bb6, label %bb7, !dbg !17363

bb14:                                             ; preds = %bb12
  call void @llvm.dbg.value(metadata ptr %8, metadata !17004, metadata !DIExpression()), !dbg !17361
; call core::result::unwrap_failed
  call void @_RNvNtCsgh59pMgT09I_4core6result13unwrap_failed(ptr noalias noundef nonnull readonly align 1 @alloc_00ae4b301f7fab8ac9617c03fcbd7274, i64 noundef 43, ptr noundef nonnull align 1 %_42, ptr noalias noundef nonnull readonly align 8 dereferenceable(24) @vtable.0, ptr noalias noundef nonnull readonly align 8 dereferenceable(24) @alloc_790fa16537318cdcacda1138f4fabd38) #12, !dbg !17364
  unreachable, !dbg !17364

bb7:                                              ; preds = %bb15
  %_27 = getelementptr inbounds %"bindings::bindings_raw::ksmbd_login_response", ptr %resp, i64 0, i32 6, !dbg !17365
  call void @llvm.dbg.value(metadata ptr %_27, metadata !17366, metadata !DIExpression()), !dbg !17375
  call void @llvm.dbg.value(metadata ptr %2, metadata !17373, metadata !DIExpression()), !dbg !17375
  call void @llvm.dbg.value(metadata i64 %_15, metadata !17374, metadata !DIExpression()), !dbg !17375
  tail call void @llvm.memcpy.p0.p0.i64(ptr nonnull align 8 %2, ptr nonnull align 1 %_27, i64 %_15, i1 false), !dbg !17377
  br label %bb8, !dbg !17378

bb6:                                              ; preds = %bb15
  call void @llvm.dbg.value(metadata ptr %8, metadata !17379, metadata !DIExpression()), !dbg !17386
  call void @llvm.dbg.value(metadata ptr undef, metadata !17388, metadata !DIExpression()), !dbg !17394
  call void @llvm.dbg.value(metadata ptr %8, metadata !17396, metadata !DIExpression()), !dbg !17418
  call void @llvm.dbg.declare(metadata ptr undef, metadata !17411, metadata !DIExpression()), !dbg !17420
  call void @llvm.dbg.value(metadata i64 48, metadata !17412, metadata !DIExpression()), !dbg !17421
  call void @llvm.dbg.value(metadata i64 8, metadata !17414, metadata !DIExpression()), !dbg !17422
  call void @llvm.dbg.value(metadata i64 48, metadata !17416, metadata !DIExpression(DW_OP_LLVM_fragment, 64, 64)), !dbg !17423
  call void @llvm.dbg.value(metadata i64 8, metadata !17416, metadata !DIExpression(DW_OP_LLVM_fragment, 0, 64)), !dbg !17423
  call void @llvm.dbg.value(metadata i64 8, metadata !17424, metadata !DIExpression(DW_OP_LLVM_fragment, 0, 64)), !dbg !17431
  call void @llvm.dbg.value(metadata i64 48, metadata !17424, metadata !DIExpression(DW_OP_LLVM_fragment, 64, 64)), !dbg !17431
  call void @llvm.dbg.value(metadata ptr undef, metadata !17429, metadata !DIExpression()), !dbg !17431
  call void @llvm.dbg.value(metadata ptr %8, metadata !17430, metadata !DIExpression()), !dbg !17431
  call void @llvm.dbg.value(metadata ptr %8, metadata !17433, metadata !DIExpression()), !dbg !17439
  call void @llvm.dbg.value(metadata i64 8, metadata !17438, metadata !DIExpression(DW_OP_LLVM_fragment, 0, 64)), !dbg !17439
  call void @llvm.dbg.value(metadata i64 48, metadata !17438, metadata !DIExpression(DW_OP_LLVM_fragment, 64, 64)), !dbg !17439
  tail call void @__rust_dealloc(ptr noundef nonnull %8, i64 noundef 48, i64 noundef 8) #11, !dbg !17441, !noalias !17442
  br label %bb8, !dbg !17445

bb8:                                              ; preds = %bb7, %bb6
  %.0 = phi ptr [ null, %bb6 ], [ %8, %bb7 ], !dbg !17362
  ret ptr %.0, !dbg !17445
}

; Function Attrs: mustprogress nocallback nofree nosync nounwind speculatable willreturn memory(none)
declare void @llvm.dbg.declare(metadata, metadata, metadata) #3

; Function Attrs: noredzone nounwind allockind("alloc,uninitialized,aligned") allocsize(0)
declare dso_local noalias noundef ptr @__rust_alloc(i64 noundef, i64 allocalign noundef) unnamed_addr #4

; Function Attrs: mustprogress nocallback nofree nounwind willreturn memory(argmem: readwrite)
declare void @llvm.memcpy.p0.p0.i64(ptr noalias nocapture writeonly, ptr noalias nocapture readonly, i64, i1 immarg) #5

; <core::fmt::Formatter>::debug_lower_hex
; Function Attrs: noredzone nounwind
declare dso_local noundef zeroext i1 @_RNvMs5_NtCsgh59pMgT09I_4core3fmtNtB5_9Formatter15debug_lower_hex(ptr noalias noundef readonly align 8 dereferenceable(64)) unnamed_addr #2

; <u16 as core::fmt::LowerHex>::fmt
; Function Attrs: noredzone nounwind
declare dso_local noundef zeroext i1 @_RNvXsO_NtNtCsgh59pMgT09I_4core3fmt3numtNtB7_8LowerHex3fmt(ptr noalias noundef readonly align 2 dereferenceable(2), ptr noalias noundef align 8 dereferenceable(64)) unnamed_addr #2

; <core::fmt::Formatter>::debug_upper_hex
; Function Attrs: noredzone nounwind
declare dso_local noundef zeroext i1 @_RNvMs5_NtCsgh59pMgT09I_4core3fmtNtB5_9Formatter15debug_upper_hex(ptr noalias noundef readonly align 8 dereferenceable(64)) unnamed_addr #2

; <u16 as core::fmt::UpperHex>::fmt
; Function Attrs: noredzone nounwind
declare dso_local noundef zeroext i1 @_RNvXsP_NtNtCsgh59pMgT09I_4core3fmt3numtNtB7_8UpperHex3fmt(ptr noalias noundef readonly align 2 dereferenceable(2), ptr noalias noundef align 8 dereferenceable(64)) unnamed_addr #2

; <u16 as core::fmt::Display>::fmt
; Function Attrs: noredzone nounwind
declare dso_local noundef zeroext i1 @_RNvXs1_NtNtNtCsgh59pMgT09I_4core3fmt3num3imptNtB9_7Display3fmt(ptr noalias noundef readonly align 2 dereferenceable(2), ptr noalias noundef align 8 dereferenceable(64)) unnamed_addr #2

; Function Attrs: noredzone nounwind allockind("free")
declare dso_local void @__rust_dealloc(ptr allocptr noundef, i64 noundef, i64 noundef) unnamed_addr #6

; core::fmt::pointer_fmt_inner
; Function Attrs: noredzone nounwind
declare dso_local noundef zeroext i1 @_RNvNtCsgh59pMgT09I_4core3fmt17pointer_fmt_inner(i64 noundef, ptr noalias noundef align 8 dereferenceable(64)) unnamed_addr #2

; Function Attrs: noredzone nounwind
declare dso_local noundef ptr @smb_strndup_from_utf16(ptr noundef, i32 noundef, i1 noundef zeroext, ptr noundef) unnamed_addr #2

; kernel::print::call_printk
; Function Attrs: noredzone nounwind
declare dso_local void @_RNvNtCsfFwfLe9nonL_6kernel5print11call_printk(ptr noalias noundef readonly align 1 dereferenceable(10), ptr noalias noundef nonnull readonly align 1, i64 noundef, ptr noalias nocapture noundef readonly dereferenceable(48)) unnamed_addr #2

; Function Attrs: noredzone nounwind
declare dso_local noundef i32 @ksmbd_auth_ntlmv2(ptr noundef, ptr noundef, ptr noundef, i32 noundef, ptr noundef, ptr noundef) unnamed_addr #2

; Function Attrs: noredzone nounwind
declare dso_local void @kfree(ptr noundef) unnamed_addr #2

; Function Attrs: noredzone nounwind
declare dso_local noundef ptr @__kmalloc(i64 noundef, i32 noundef) unnamed_addr #2

; Function Attrs: noredzone nounwind
declare dso_local noundef i32 @cifs_arc4_setkey(ptr noundef, ptr noundef, i32 noundef) unnamed_addr #2

; Function Attrs: noredzone nounwind
declare dso_local void @cifs_arc4_crypt(ptr noundef, ptr noundef, ptr noundef, i32 noundef) unnamed_addr #2

; Function Attrs: noredzone nounwind
declare dso_local void @kfree_sensitive(ptr noundef) unnamed_addr #2

; Function Attrs: noredzone nounwind
declare dso_local noundef i64 @rust_helper_PTR_ERR(ptr noundef) unnamed_addr #2

; Function Attrs: mustprogress nocallback nofree nounwind willreturn memory(argmem: write)
declare void @llvm.memset.p0.i64(ptr nocapture writeonly, i8, i64, i1 immarg) #7

; core::panicking::panic
; Function Attrs: cold noinline noredzone noreturn nounwind
declare dso_local void @_RNvNtCsgh59pMgT09I_4core9panicking5panic(ptr noalias noundef nonnull readonly align 1, i64 noundef, ptr noalias noundef readonly align 8 dereferenceable(24)) unnamed_addr #8

; <core::alloc::AllocError as core::fmt::Debug>::fmt
; Function Attrs: noredzone nounwind
declare dso_local noundef zeroext i1 @_RNvXs7_NtCsgh59pMgT09I_4core5allocNtB5_10AllocErrorNtNtB7_3fmt5Debug3fmt(ptr noalias noundef nonnull readonly align 1, ptr noalias noundef align 8 dereferenceable(64)) unnamed_addr #2

; core::result::unwrap_failed
; Function Attrs: cold noinline noredzone noreturn nounwind
declare dso_local void @_RNvNtCsgh59pMgT09I_4core6result13unwrap_failed(ptr noalias noundef nonnull readonly align 1, i64 noundef, ptr noundef nonnull align 1, ptr noalias noundef readonly align 8 dereferenceable(24), ptr noalias noundef readonly align 8 dereferenceable(24)) unnamed_addr #8

; Function Attrs: noredzone nounwind
declare dso_local noundef ptr @kstrdup(ptr noundef, i32 noundef) unnamed_addr #2

; Function Attrs: mustprogress nocallback nofree nosync nounwind willreturn memory(argmem: readwrite)
declare void @llvm.lifetime.start.p0(i64 immarg, ptr nocapture) #9

; Function Attrs: mustprogress nocallback nofree nosync nounwind willreturn memory(argmem: readwrite)
declare void @llvm.lifetime.end.p0(i64 immarg, ptr nocapture) #9

; Function Attrs: nocallback nofree nosync nounwind speculatable willreturn memory(none)
declare void @llvm.dbg.value(metadata, metadata, metadata) #10

; Function Attrs: nocallback nofree nosync nounwind speculatable willreturn memory(none)
declare i32 @llvm.smax.i32(i32, i32) #10

attributes #0 = { inlinehint mustprogress nofree norecurse noredzone nosync nounwind willreturn memory(none) "frame-pointer"="all" "target-cpu"="generic" "target-features"="-3dnow,-3dnowa,-mmx,+soft-float,+retpoline-external-thunk,-sse,-sse2,-sse3,-ssse3,-sse4.1,-sse4.2,-avx,-avx2" "tune-cpu"="generic" }
attributes #1 = { inlinehint noredzone nounwind "frame-pointer"="all" "target-cpu"="generic" "target-features"="-3dnow,-3dnowa,-mmx,+soft-float,+retpoline-external-thunk,-sse,-sse2,-sse3,-ssse3,-sse4.1,-sse4.2,-avx,-avx2" "tune-cpu"="generic" }
attributes #2 = { noredzone nounwind "frame-pointer"="all" "target-cpu"="generic" "target-features"="-3dnow,-3dnowa,-mmx,+soft-float,+retpoline-external-thunk,-sse,-sse2,-sse3,-ssse3,-sse4.1,-sse4.2,-avx,-avx2" "tune-cpu"="generic" }
attributes #3 = { mustprogress nocallback nofree nosync nounwind speculatable willreturn memory(none) }
attributes #4 = { noredzone nounwind allockind("alloc,uninitialized,aligned") allocsize(0) "alloc-family"="__rust_alloc" "frame-pointer"="all" "target-cpu"="generic" "target-features"="-3dnow,-3dnowa,-mmx,+soft-float,+retpoline-external-thunk,-sse,-sse2,-sse3,-ssse3,-sse4.1,-sse4.2,-avx,-avx2" "tune-cpu"="generic" }
attributes #5 = { mustprogress nocallback nofree nounwind willreturn memory(argmem: readwrite) }
attributes #6 = { noredzone nounwind allockind("free") "alloc-family"="__rust_alloc" "frame-pointer"="all" "target-cpu"="generic" "target-features"="-3dnow,-3dnowa,-mmx,+soft-float,+retpoline-external-thunk,-sse,-sse2,-sse3,-ssse3,-sse4.1,-sse4.2,-avx,-avx2" "tune-cpu"="generic" }
attributes #7 = { mustprogress nocallback nofree nounwind willreturn memory(argmem: write) }
attributes #8 = { cold noinline noredzone noreturn nounwind "frame-pointer"="all" "target-cpu"="generic" "target-features"="-3dnow,-3dnowa,-mmx,+soft-float,+retpoline-external-thunk,-sse,-sse2,-sse3,-ssse3,-sse4.1,-sse4.2,-avx,-avx2" "tune-cpu"="generic" }
attributes #9 = { mustprogress nocallback nofree nosync nounwind willreturn memory(argmem: readwrite) }
attributes #10 = { nocallback nofree nosync nounwind speculatable willreturn memory(none) }
attributes #11 = { nounwind }
attributes #12 = { noreturn nounwind }

!llvm.module.flags = !{!16, !17, !18}
!llvm.dbg.cu = !{!19}

!0 = !DIGlobalVariableExpression(var: !1, expr: !DIExpression())
!1 = distinct !DIGlobalVariable(name: "<core::alloc::AllocError as core::fmt::Debug>::{vtable}", scope: null, file: !2, type: !3, isLocal: true, isDefinition: true)
!2 = !DIFile(filename: "<unknown>", directory: "")
!3 = !DICompositeType(tag: DW_TAG_structure_type, name: "<core::alloc::AllocError as core::fmt::Debug>::{vtable_type}", file: !2, size: 256, align: 64, flags: DIFlagArtificial, elements: !4, vtableHolder: !12, templateParams: !15, identifier: "247c22649f48f93823d8ae80f7e271ca")
!4 = !{!5, !8, !10, !11}
!5 = !DIDerivedType(tag: DW_TAG_member, name: "drop_in_place", scope: !3, file: !2, baseType: !6, size: 64, align: 64)
!6 = !DIDerivedType(tag: DW_TAG_pointer_type, name: "*const ()", baseType: !7, size: 64, align: 64, dwarfAddressSpace: 0)
!7 = !DIBasicType(name: "()", encoding: DW_ATE_unsigned)
!8 = !DIDerivedType(tag: DW_TAG_member, name: "size", scope: !3, file: !2, baseType: !9, size: 64, align: 64, offset: 64)
!9 = !DIBasicType(name: "usize", size: 64, encoding: DW_ATE_unsigned)
!10 = !DIDerivedType(tag: DW_TAG_member, name: "align", scope: !3, file: !2, baseType: !9, size: 64, align: 64, offset: 128)
!11 = !DIDerivedType(tag: DW_TAG_member, name: "__method3", scope: !3, file: !2, baseType: !6, size: 64, align: 64, offset: 192)
!12 = !DICompositeType(tag: DW_TAG_structure_type, name: "AllocError", scope: !13, file: !2, align: 8, elements: !15, identifier: "5849e4970cc6e329e27571522303204")
!13 = !DINamespace(name: "alloc", scope: !14)
!14 = !DINamespace(name: "core", scope: null)
!15 = !{}
!16 = !{i32 1, !"Code Model", i32 2}
!17 = !{i32 2, !"Dwarf Version", i32 4}
!18 = !{i32 2, !"Debug Info Version", i32 3}
!19 = distinct !DICompileUnit(language: DW_LANG_Rust, file: !20, producer: "clang LLVM (rustc version 1.71.0 (8ede3aae2 2023-07-12))", isOptimized: true, runtimeVersion: 0, emissionKind: FullDebug, enums: !21, globals: !105, splitDebugInlining: false)
!20 = !DIFile(filename: "fs/ksmbd/wrapper.rs/@/wrapper.3993989137375699-cgu.0", directory: "/home/ubuntu/Desktop/workspace/kernel/buildroot/output/build/linux-rust")
!21 = !{!22, !91, !100}
!22 = !DICompositeType(tag: DW_TAG_enumeration_type, name: "AlignmentEnum64", scope: !23, file: !2, baseType: !25, size: 64, align: 64, flags: DIFlagEnumClass, elements: !26)
!23 = !DINamespace(name: "alignment", scope: !24)
!24 = !DINamespace(name: "ptr", scope: !14)
!25 = !DIBasicType(name: "u64", size: 64, encoding: DW_ATE_unsigned)
!26 = !{!27, !28, !29, !30, !31, !32, !33, !34, !35, !36, !37, !38, !39, !40, !41, !42, !43, !44, !45, !46, !47, !48, !49, !50, !51, !52, !53, !54, !55, !56, !57, !58, !59, !60, !61, !62, !63, !64, !65, !66, !67, !68, !69, !70, !71, !72, !73, !74, !75, !76, !77, !78, !79, !80, !81, !82, !83, !84, !85, !86, !87, !88, !89, !90}
!27 = !DIEnumerator(name: "_Align1Shl0", value: 1, isUnsigned: true)
!28 = !DIEnumerator(name: "_Align1Shl1", value: 2, isUnsigned: true)
!29 = !DIEnumerator(name: "_Align1Shl2", value: 4, isUnsigned: true)
!30 = !DIEnumerator(name: "_Align1Shl3", value: 8, isUnsigned: true)
!31 = !DIEnumerator(name: "_Align1Shl4", value: 16, isUnsigned: true)
!32 = !DIEnumerator(name: "_Align1Shl5", value: 32, isUnsigned: true)
!33 = !DIEnumerator(name: "_Align1Shl6", value: 64, isUnsigned: true)
!34 = !DIEnumerator(name: "_Align1Shl7", value: 128, isUnsigned: true)
!35 = !DIEnumerator(name: "_Align1Shl8", value: 256, isUnsigned: true)
!36 = !DIEnumerator(name: "_Align1Shl9", value: 512, isUnsigned: true)
!37 = !DIEnumerator(name: "_Align1Shl10", value: 1024, isUnsigned: true)
!38 = !DIEnumerator(name: "_Align1Shl11", value: 2048, isUnsigned: true)
!39 = !DIEnumerator(name: "_Align1Shl12", value: 4096, isUnsigned: true)
!40 = !DIEnumerator(name: "_Align1Shl13", value: 8192, isUnsigned: true)
!41 = !DIEnumerator(name: "_Align1Shl14", value: 16384, isUnsigned: true)
!42 = !DIEnumerator(name: "_Align1Shl15", value: 32768, isUnsigned: true)
!43 = !DIEnumerator(name: "_Align1Shl16", value: 65536, isUnsigned: true)
!44 = !DIEnumerator(name: "_Align1Shl17", value: 131072, isUnsigned: true)
!45 = !DIEnumerator(name: "_Align1Shl18", value: 262144, isUnsigned: true)
!46 = !DIEnumerator(name: "_Align1Shl19", value: 524288, isUnsigned: true)
!47 = !DIEnumerator(name: "_Align1Shl20", value: 1048576, isUnsigned: true)
!48 = !DIEnumerator(name: "_Align1Shl21", value: 2097152, isUnsigned: true)
!49 = !DIEnumerator(name: "_Align1Shl22", value: 4194304, isUnsigned: true)
!50 = !DIEnumerator(name: "_Align1Shl23", value: 8388608, isUnsigned: true)
!51 = !DIEnumerator(name: "_Align1Shl24", value: 16777216, isUnsigned: true)
!52 = !DIEnumerator(name: "_Align1Shl25", value: 33554432, isUnsigned: true)
!53 = !DIEnumerator(name: "_Align1Shl26", value: 67108864, isUnsigned: true)
!54 = !DIEnumerator(name: "_Align1Shl27", value: 134217728, isUnsigned: true)
!55 = !DIEnumerator(name: "_Align1Shl28", value: 268435456, isUnsigned: true)
!56 = !DIEnumerator(name: "_Align1Shl29", value: 536870912, isUnsigned: true)
!57 = !DIEnumerator(name: "_Align1Shl30", value: 1073741824, isUnsigned: true)
!58 = !DIEnumerator(name: "_Align1Shl31", value: 2147483648, isUnsigned: true)
!59 = !DIEnumerator(name: "_Align1Shl32", value: 4294967296, isUnsigned: true)
!60 = !DIEnumerator(name: "_Align1Shl33", value: 8589934592, isUnsigned: true)
!61 = !DIEnumerator(name: "_Align1Shl34", value: 17179869184, isUnsigned: true)
!62 = !DIEnumerator(name: "_Align1Shl35", value: 34359738368, isUnsigned: true)
!63 = !DIEnumerator(name: "_Align1Shl36", value: 68719476736, isUnsigned: true)
!64 = !DIEnumerator(name: "_Align1Shl37", value: 137438953472, isUnsigned: true)
!65 = !DIEnumerator(name: "_Align1Shl38", value: 274877906944, isUnsigned: true)
!66 = !DIEnumerator(name: "_Align1Shl39", value: 549755813888, isUnsigned: true)
!67 = !DIEnumerator(name: "_Align1Shl40", value: 1099511627776, isUnsigned: true)
!68 = !DIEnumerator(name: "_Align1Shl41", value: 2199023255552, isUnsigned: true)
!69 = !DIEnumerator(name: "_Align1Shl42", value: 4398046511104, isUnsigned: true)
!70 = !DIEnumerator(name: "_Align1Shl43", value: 8796093022208, isUnsigned: true)
!71 = !DIEnumerator(name: "_Align1Shl44", value: 17592186044416, isUnsigned: true)
!72 = !DIEnumerator(name: "_Align1Shl45", value: 35184372088832, isUnsigned: true)
!73 = !DIEnumerator(name: "_Align1Shl46", value: 70368744177664, isUnsigned: true)
!74 = !DIEnumerator(name: "_Align1Shl47", value: 140737488355328, isUnsigned: true)
!75 = !DIEnumerator(name: "_Align1Shl48", value: 281474976710656, isUnsigned: true)
!76 = !DIEnumerator(name: "_Align1Shl49", value: 562949953421312, isUnsigned: true)
!77 = !DIEnumerator(name: "_Align1Shl50", value: 1125899906842624, isUnsigned: true)
!78 = !DIEnumerator(name: "_Align1Shl51", value: 2251799813685248, isUnsigned: true)
!79 = !DIEnumerator(name: "_Align1Shl52", value: 4503599627370496, isUnsigned: true)
!80 = !DIEnumerator(name: "_Align1Shl53", value: 9007199254740992, isUnsigned: true)
!81 = !DIEnumerator(name: "_Align1Shl54", value: 18014398509481984, isUnsigned: true)
!82 = !DIEnumerator(name: "_Align1Shl55", value: 36028797018963968, isUnsigned: true)
!83 = !DIEnumerator(name: "_Align1Shl56", value: 72057594037927936, isUnsigned: true)
!84 = !DIEnumerator(name: "_Align1Shl57", value: 144115188075855872, isUnsigned: true)
!85 = !DIEnumerator(name: "_Align1Shl58", value: 288230376151711744, isUnsigned: true)
!86 = !DIEnumerator(name: "_Align1Shl59", value: 576460752303423488, isUnsigned: true)
!87 = !DIEnumerator(name: "_Align1Shl60", value: 1152921504606846976, isUnsigned: true)
!88 = !DIEnumerator(name: "_Align1Shl61", value: 2305843009213693952, isUnsigned: true)
!89 = !DIEnumerator(name: "_Align1Shl62", value: 4611686018427387904, isUnsigned: true)
!90 = !DIEnumerator(name: "_Align1Shl63", value: 9223372036854775808, isUnsigned: true)
!91 = !DICompositeType(tag: DW_TAG_enumeration_type, name: "Alignment", scope: !92, file: !2, baseType: !94, size: 8, align: 8, flags: DIFlagEnumClass, elements: !95)
!92 = !DINamespace(name: "rt", scope: !93)
!93 = !DINamespace(name: "fmt", scope: !14)
!94 = !DIBasicType(name: "u8", size: 8, encoding: DW_ATE_unsigned)
!95 = !{!96, !97, !98, !99}
!96 = !DIEnumerator(name: "Left", value: 0, isUnsigned: true)
!97 = !DIEnumerator(name: "Right", value: 1, isUnsigned: true)
!98 = !DIEnumerator(name: "Center", value: 2, isUnsigned: true)
!99 = !DIEnumerator(name: "Unknown", value: 3, isUnsigned: true)
!100 = !DICompositeType(tag: DW_TAG_enumeration_type, name: "c_void", scope: !101, file: !2, baseType: !94, size: 8, align: 8, flags: DIFlagEnumClass, elements: !102)
!101 = !DINamespace(name: "ffi", scope: !14)
!102 = !{!103, !104}
!103 = !DIEnumerator(name: "__variant1", value: 0, isUnsigned: true)
!104 = !DIEnumerator(name: "__variant2", value: 1, isUnsigned: true)
!105 = !{!0}
!106 = distinct !DISubprogram(name: "drop_in_place<core::alloc::AllocError>", linkageName: "_RINvNtCsgh59pMgT09I_4core3ptr13drop_in_placeNtNtB4_5alloc10AllocErrorECs4WtFLvQmBW7_7wrapper", scope: !24, file: !107, line: 497, type: !108, scopeLine: 497, flags: DIFlagPrototyped, spFlags: DISPFlagLocalToUnit | DISPFlagDefinition | DISPFlagOptimized, unit: !19, templateParams: !113, retainedNodes: !111)
!107 = !DIFile(filename: "/home/ubuntu/.rustup/toolchains/1.71.0-x86_64-unknown-linux-gnu/lib/rustlib/src/rust/library/core/src/ptr/mod.rs", directory: "", checksumkind: CSK_MD5, checksum: "e73cb9386378d35e1df544cb9e8dd07b")
!108 = !DISubroutineType(types: !109)
!109 = !{null, !110}
!110 = !DIDerivedType(tag: DW_TAG_pointer_type, name: "*mut core::alloc::AllocError", baseType: !12, size: 64, align: 64, dwarfAddressSpace: 0)
!111 = !{!112}
!112 = !DILocalVariable(arg: 1, scope: !106, file: !107, line: 497, type: !110)
!113 = !{!114}
!114 = !DITemplateTypeParameter(name: "T", type: !12)
!115 = !DILocation(line: 0, scope: !106)
!116 = !DILocation(line: 497, column: 1, scope: !106)
!117 = distinct !DISubprogram(name: "fmt", linkageName: "_RNvXs1l_NtNtCsgh59pMgT09I_4core3fmt3numtNtB8_5Debug3fmt", scope: !119, file: !118, line: 189, type: !121, scopeLine: 189, flags: DIFlagPrototyped, spFlags: DISPFlagLocalToUnit | DISPFlagDefinition | DISPFlagOptimized, unit: !19, templateParams: !15, retainedNodes: !178)
!118 = !DIFile(filename: "/home/ubuntu/.rustup/toolchains/1.71.0-x86_64-unknown-linux-gnu/lib/rustlib/src/rust/library/core/src/fmt/num.rs", directory: "", checksumkind: CSK_MD5, checksum: "3143de71d5ad70ee2e53269932cc8053")
!119 = !DINamespace(name: "{impl#85}", scope: !120)
!120 = !DINamespace(name: "num", scope: !93)
!121 = !DISubroutineType(types: !122)
!122 = !{!123, !141, !143}
!123 = !DICompositeType(tag: DW_TAG_structure_type, name: "Result<(), core::fmt::Error>", scope: !124, file: !2, size: 8, align: 8, elements: !125, templateParams: !15, identifier: "b2c2b7423c5c11b8ce8c7d2c658bb1a7")
!124 = !DINamespace(name: "result", scope: !14)
!125 = !{!126}
!126 = !DICompositeType(tag: DW_TAG_variant_part, scope: !123, file: !2, size: 8, align: 8, elements: !127, templateParams: !15, identifier: "25a883e3e117f640b9aff6229b32c0c7", discriminator: !140)
!127 = !{!128, !136}
!128 = !DIDerivedType(tag: DW_TAG_member, name: "Ok", scope: !126, file: !2, baseType: !129, size: 8, align: 8, extraData: i64 0)
!129 = !DICompositeType(tag: DW_TAG_structure_type, name: "Ok", scope: !123, file: !2, size: 8, align: 8, elements: !130, templateParams: !132, identifier: "4f9087f25d99523b32692a4434939b12")
!130 = !{!131}
!131 = !DIDerivedType(tag: DW_TAG_member, name: "__0", scope: !129, file: !2, baseType: !7, align: 8, offset: 8)
!132 = !{!133, !134}
!133 = !DITemplateTypeParameter(name: "T", type: !7)
!134 = !DITemplateTypeParameter(name: "E", type: !135)
!135 = !DICompositeType(tag: DW_TAG_structure_type, name: "Error", scope: !93, file: !2, align: 8, elements: !15, identifier: "544061a18c518a4c373f42404ea83d9")
!136 = !DIDerivedType(tag: DW_TAG_member, name: "Err", scope: !126, file: !2, baseType: !137, size: 8, align: 8, extraData: i64 1)
!137 = !DICompositeType(tag: DW_TAG_structure_type, name: "Err", scope: !123, file: !2, size: 8, align: 8, elements: !138, templateParams: !132, identifier: "24e123df92b9cd1340ef4ecd62abe41e")
!138 = !{!139}
!139 = !DIDerivedType(tag: DW_TAG_member, name: "__0", scope: !137, file: !2, baseType: !135, align: 8, offset: 8)
!140 = !DIDerivedType(tag: DW_TAG_member, scope: !123, file: !2, baseType: !94, size: 8, align: 8, flags: DIFlagArtificial)
!141 = !DIDerivedType(tag: DW_TAG_pointer_type, name: "&u16", baseType: !142, size: 64, align: 64, dwarfAddressSpace: 0)
!142 = !DIBasicType(name: "u16", size: 16, encoding: DW_ATE_unsigned)
!143 = !DIDerivedType(tag: DW_TAG_pointer_type, name: "&mut core::fmt::Formatter", baseType: !144, size: 64, align: 64, dwarfAddressSpace: 0)
!144 = !DICompositeType(tag: DW_TAG_structure_type, name: "Formatter", scope: !93, file: !2, size: 512, align: 64, elements: !145, templateParams: !15, identifier: "ef8740bbc2e13c0393d131026881f88d")
!145 = !{!146, !148, !150, !151, !166, !167}
!146 = !DIDerivedType(tag: DW_TAG_member, name: "flags", scope: !144, file: !2, baseType: !147, size: 32, align: 32, offset: 416)
!147 = !DIBasicType(name: "u32", size: 32, encoding: DW_ATE_unsigned)
!148 = !DIDerivedType(tag: DW_TAG_member, name: "fill", scope: !144, file: !2, baseType: !149, size: 32, align: 32, offset: 384)
!149 = !DIBasicType(name: "char", size: 32, encoding: DW_ATE_UTF)
!150 = !DIDerivedType(tag: DW_TAG_member, name: "align", scope: !144, file: !2, baseType: !91, size: 8, align: 8, offset: 448)
!151 = !DIDerivedType(tag: DW_TAG_member, name: "width", scope: !144, file: !2, baseType: !152, size: 128, align: 64)
!152 = !DICompositeType(tag: DW_TAG_structure_type, name: "Option<usize>", scope: !153, file: !2, size: 128, align: 64, elements: !154, templateParams: !15, identifier: "cc7a036b3966298f41650d1e3bfcf99")
!153 = !DINamespace(name: "option", scope: !14)
!154 = !{!155}
!155 = !DICompositeType(tag: DW_TAG_variant_part, scope: !152, file: !2, size: 128, align: 64, elements: !156, templateParams: !15, identifier: "5175d08677736b188ac49e308460be2f", discriminator: !165)
!156 = !{!157, !161}
!157 = !DIDerivedType(tag: DW_TAG_member, name: "None", scope: !155, file: !2, baseType: !158, size: 128, align: 64, extraData: i64 0)
!158 = !DICompositeType(tag: DW_TAG_structure_type, name: "None", scope: !152, file: !2, size: 128, align: 64, elements: !15, templateParams: !159, identifier: "2c185adc5e077ff7d0d9a78d39e55e")
!159 = !{!160}
!160 = !DITemplateTypeParameter(name: "T", type: !9)
!161 = !DIDerivedType(tag: DW_TAG_member, name: "Some", scope: !155, file: !2, baseType: !162, size: 128, align: 64, extraData: i64 1)
!162 = !DICompositeType(tag: DW_TAG_structure_type, name: "Some", scope: !152, file: !2, size: 128, align: 64, elements: !163, templateParams: !159, identifier: "6d52533b9790bdf911e11bf13994434c")
!163 = !{!164}
!164 = !DIDerivedType(tag: DW_TAG_member, name: "__0", scope: !162, file: !2, baseType: !9, size: 64, align: 64, offset: 64)
!165 = !DIDerivedType(tag: DW_TAG_member, scope: !152, file: !2, baseType: !25, size: 64, align: 64, flags: DIFlagArtificial)
!166 = !DIDerivedType(tag: DW_TAG_member, name: "precision", scope: !144, file: !2, baseType: !152, size: 128, align: 64, offset: 128)
!167 = !DIDerivedType(tag: DW_TAG_member, name: "buf", scope: !144, file: !2, baseType: !168, size: 128, align: 64, offset: 256)
!168 = !DICompositeType(tag: DW_TAG_structure_type, name: "&mut dyn core::fmt::Write", file: !2, size: 128, align: 64, elements: !169, templateParams: !15, identifier: "d82babc35bec8bd6b00be6d16fdfb6a8")
!169 = !{!170, !173}
!170 = !DIDerivedType(tag: DW_TAG_member, name: "pointer", scope: !168, file: !2, baseType: !171, size: 64, align: 64)
!171 = !DIDerivedType(tag: DW_TAG_pointer_type, baseType: !172, size: 64, align: 64, dwarfAddressSpace: 0)
!172 = !DICompositeType(tag: DW_TAG_structure_type, name: "dyn core::fmt::Write", file: !2, align: 8, elements: !15, identifier: "aafebaa022c27b93cf6097cb11dd5fc")
!173 = !DIDerivedType(tag: DW_TAG_member, name: "vtable", scope: !168, file: !2, baseType: !174, size: 64, align: 64, offset: 64)
!174 = !DIDerivedType(tag: DW_TAG_pointer_type, name: "&[usize; 3]", baseType: !175, size: 64, align: 64, dwarfAddressSpace: 0)
!175 = !DICompositeType(tag: DW_TAG_array_type, baseType: !9, size: 192, align: 64, elements: !176)
!176 = !{!177}
!177 = !DISubrange(count: 3, lowerBound: 0)
!178 = !{!179, !180}
!179 = !DILocalVariable(name: "self", arg: 1, scope: !117, file: !118, line: 189, type: !141)
!180 = !DILocalVariable(name: "f", arg: 2, scope: !117, file: !118, line: 189, type: !143)
!181 = !DILocation(line: 0, scope: !117)
!182 = !DILocation(line: 190, column: 20, scope: !117)
!183 = !DILocation(line: 192, column: 27, scope: !117)
!184 = !DILocation(line: 191, column: 21, scope: !117)
!185 = !DILocation(line: 197, column: 14, scope: !117)
!186 = !DILocation(line: 195, column: 21, scope: !117)
!187 = !DILocation(line: 193, column: 21, scope: !117)
!188 = distinct !DISubprogram(name: "fmt<bindings::bindings_raw::ntlmv2_resp>", linkageName: "_RNvXsl_NtCsgh59pMgT09I_4core3fmtONtNtCs68AuNRdv55k_8bindings12bindings_raw11ntlmv2_respNtB5_5Debug3fmtCs4WtFLvQmBW7_7wrapper", scope: !190, file: !189, line: 2440, type: !191, scopeLine: 2440, flags: DIFlagPrototyped, spFlags: DISPFlagLocalToUnit | DISPFlagDefinition | DISPFlagOptimized, unit: !19, templateParams: !212, retainedNodes: !209)
!189 = !DIFile(filename: "/home/ubuntu/.rustup/toolchains/1.71.0-x86_64-unknown-linux-gnu/lib/rustlib/src/rust/library/core/src/fmt/mod.rs", directory: "", checksumkind: CSK_MD5, checksum: "1a732c99c57cb2d76a548fb6f43c5e00")
!190 = !DINamespace(name: "{impl#23}", scope: !93)
!191 = !DISubroutineType(types: !192)
!192 = !{!123, !193, !143}
!193 = !DIDerivedType(tag: DW_TAG_pointer_type, name: "&*mut bindings::bindings_raw::ntlmv2_resp", baseType: !194, size: 64, align: 64, dwarfAddressSpace: 0)
!194 = !DIDerivedType(tag: DW_TAG_pointer_type, name: "*mut bindings::bindings_raw::ntlmv2_resp", baseType: !195, size: 64, align: 64, dwarfAddressSpace: 0)
!195 = !DICompositeType(tag: DW_TAG_structure_type, name: "ntlmv2_resp", scope: !196, file: !2, size: 352, align: 8, elements: !198, templateParams: !15, identifier: "7ab32fa9129a5539cbef4b6de15d867b")
!196 = !DINamespace(name: "bindings_raw", scope: !197)
!197 = !DINamespace(name: "bindings", scope: null)
!198 = !{!199, !204, !205, !206, !207, !208}
!199 = !DIDerivedType(tag: DW_TAG_member, name: "ntlmv2_hash", scope: !195, file: !2, baseType: !200, size: 128, align: 8)
!200 = !DICompositeType(tag: DW_TAG_array_type, baseType: !201, size: 128, align: 8, elements: !202)
!201 = !DIBasicType(name: "i8", size: 8, encoding: DW_ATE_signed)
!202 = !{!203}
!203 = !DISubrange(count: 16, lowerBound: 0)
!204 = !DIDerivedType(tag: DW_TAG_member, name: "blob_signature", scope: !195, file: !2, baseType: !147, size: 32, align: 32, offset: 128)
!205 = !DIDerivedType(tag: DW_TAG_member, name: "reserved", scope: !195, file: !2, baseType: !147, size: 32, align: 32, offset: 160)
!206 = !DIDerivedType(tag: DW_TAG_member, name: "time", scope: !195, file: !2, baseType: !25, size: 64, align: 64, offset: 192)
!207 = !DIDerivedType(tag: DW_TAG_member, name: "client_chal", scope: !195, file: !2, baseType: !25, size: 64, align: 64, offset: 256)
!208 = !DIDerivedType(tag: DW_TAG_member, name: "reserved2", scope: !195, file: !2, baseType: !147, size: 32, align: 32, offset: 320)
!209 = !{!210, !211}
!210 = !DILocalVariable(name: "self", arg: 1, scope: !188, file: !189, line: 2440, type: !193)
!211 = !DILocalVariable(name: "f", arg: 2, scope: !188, file: !189, line: 2440, type: !143)
!212 = !{!213}
!213 = !DITemplateTypeParameter(name: "T", type: !195)
!214 = !DILocalVariable(name: "self", arg: 1, scope: !215, file: !189, line: 2411, type: !193)
!215 = distinct !DISubprogram(name: "fmt<bindings::bindings_raw::ntlmv2_resp>", linkageName: "_RNvXsh_NtCsgh59pMgT09I_4core3fmtONtNtCs68AuNRdv55k_8bindings12bindings_raw11ntlmv2_respNtB5_7Pointer3fmtCs4WtFLvQmBW7_7wrapper", scope: !216, file: !189, line: 2411, type: !191, scopeLine: 2411, flags: DIFlagPrototyped, spFlags: DISPFlagLocalToUnit | DISPFlagDefinition | DISPFlagOptimized, unit: !19, templateParams: !212, retainedNodes: !217)
!216 = !DINamespace(name: "{impl#19}", scope: !93)
!217 = !{!214, !218}
!218 = !DILocalVariable(name: "f", arg: 2, scope: !215, file: !189, line: 2411, type: !143)
!219 = !DILocation(line: 0, scope: !215, inlinedAt: !220)
!220 = !DILocation(line: 2441, column: 9, scope: !188)
!221 = !DILocation(line: 0, scope: !188)
!222 = !DILocalVariable(name: "f", arg: 2, scope: !223, file: !189, line: 2371, type: !143)
!223 = distinct !DISubprogram(name: "fmt<bindings::bindings_raw::ntlmv2_resp>", linkageName: "_RNvXsg_NtCsgh59pMgT09I_4core3fmtPNtNtCs68AuNRdv55k_8bindings12bindings_raw11ntlmv2_respNtB5_7Pointer3fmtCs4WtFLvQmBW7_7wrapper", scope: !224, file: !189, line: 2371, type: !225, scopeLine: 2371, flags: DIFlagPrototyped, spFlags: DISPFlagLocalToUnit | DISPFlagDefinition | DISPFlagOptimized, unit: !19, templateParams: !212, retainedNodes: !229)
!224 = !DINamespace(name: "{impl#18}", scope: !93)
!225 = !DISubroutineType(types: !226)
!226 = !{!123, !227, !143}
!227 = !DIDerivedType(tag: DW_TAG_pointer_type, name: "&*const bindings::bindings_raw::ntlmv2_resp", baseType: !228, size: 64, align: 64, dwarfAddressSpace: 0)
!228 = !DIDerivedType(tag: DW_TAG_pointer_type, name: "*const bindings::bindings_raw::ntlmv2_resp", baseType: !195, size: 64, align: 64, dwarfAddressSpace: 0)
!229 = !{!230, !222}
!230 = !DILocalVariable(name: "self", arg: 1, scope: !223, file: !189, line: 2371, type: !227)
!231 = !DILocation(line: 0, scope: !223, inlinedAt: !232)
!232 = !DILocation(line: 2412, column: 9, scope: !215, inlinedAt: !220)
!233 = !DILocation(line: 2412, column: 24, scope: !215, inlinedAt: !220)
!234 = !DILocalVariable(name: "self", arg: 1, scope: !235, file: !236, line: 237, type: !6)
!235 = distinct !DISubprogram(name: "expose_addr<()>", linkageName: "_RNvMNtNtCsgh59pMgT09I_4core3ptr9const_ptrPu11expose_addrCs4WtFLvQmBW7_7wrapper", scope: !237, file: !236, line: 237, type: !239, scopeLine: 237, flags: DIFlagPrototyped, spFlags: DISPFlagLocalToUnit | DISPFlagDefinition | DISPFlagOptimized, unit: !19, templateParams: !242, retainedNodes: !241)
!236 = !DIFile(filename: "/home/ubuntu/.rustup/toolchains/1.71.0-x86_64-unknown-linux-gnu/lib/rustlib/src/rust/library/core/src/ptr/const_ptr.rs", directory: "", checksumkind: CSK_MD5, checksum: "27317801281f9da12deb060af5b3e36e")
!237 = !DINamespace(name: "{impl#0}", scope: !238)
!238 = !DINamespace(name: "const_ptr", scope: !24)
!239 = !DISubroutineType(types: !240)
!240 = !{!9, !6}
!241 = !{!234}
!242 = !{!133}
!243 = !DILocation(line: 0, scope: !235, inlinedAt: !244)
!244 = !DILocation(line: 2373, column: 48, scope: !223, inlinedAt: !232)
!245 = !DILocation(line: 239, column: 9, scope: !235, inlinedAt: !244)
!246 = !DILocation(line: 2373, column: 9, scope: !223, inlinedAt: !232)
!247 = !DILocation(line: 2442, column: 6, scope: !188)
!248 = distinct !DISubprogram(name: "rust_ksmbd_decode_ntlmssp_auth_blob", scope: !250, file: !249, line: 66, type: !251, scopeLine: 66, flags: DIFlagPrototyped, spFlags: DISPFlagDefinition | DISPFlagOptimized, unit: !19, templateParams: !15, retainedNodes: !16616)
!249 = !DIFile(filename: "fs/ksmbd/wrapper.rs", directory: "/home/ubuntu/Desktop/workspace/kernel/buildroot/output/build/linux-rust", checksumkind: CSK_MD5, checksum: "6d83da05f17801af5fa9b3ae39caaac4")
!250 = !DINamespace(name: "wrapper", scope: null)
!251 = !DISubroutineType(types: !252)
!252 = !{!253, !254, !253, !286, !341}
!253 = !DIBasicType(name: "i32", size: 32, encoding: DW_ATE_signed)
!254 = !DIDerivedType(tag: DW_TAG_pointer_type, name: "*mut bindings::bindings_raw::authenticate_message", baseType: !255, size: 64, align: 64, dwarfAddressSpace: 0)
!255 = !DICompositeType(tag: DW_TAG_structure_type, name: "authenticate_message", scope: !196, file: !2, size: 512, align: 8, elements: !256, templateParams: !15, identifier: "c0380c4a0ea9be22b6444855214b5d8b")
!256 = !{!257, !261, !262, !268, !269, !270, !271, !272, !273, !274}
!257 = !DIDerivedType(tag: DW_TAG_member, name: "Signature", scope: !255, file: !2, baseType: !258, size: 64, align: 8)
!258 = !DICompositeType(tag: DW_TAG_array_type, baseType: !94, size: 64, align: 8, elements: !259)
!259 = !{!260}
!260 = !DISubrange(count: 8, lowerBound: 0)
!261 = !DIDerivedType(tag: DW_TAG_member, name: "MessageType", scope: !255, file: !2, baseType: !147, size: 32, align: 32, offset: 64)
!262 = !DIDerivedType(tag: DW_TAG_member, name: "LmChallengeResponse", scope: !255, file: !2, baseType: !263, size: 64, align: 8, offset: 96)
!263 = !DICompositeType(tag: DW_TAG_structure_type, name: "security_buffer", scope: !196, file: !2, size: 64, align: 8, elements: !264, templateParams: !15, identifier: "85919d5ff4d0d6eaf53efa16eaaf6f39")
!264 = !{!265, !266, !267}
!265 = !DIDerivedType(tag: DW_TAG_member, name: "Length", scope: !263, file: !2, baseType: !142, size: 16, align: 16)
!266 = !DIDerivedType(tag: DW_TAG_member, name: "MaximumLength", scope: !263, file: !2, baseType: !142, size: 16, align: 16, offset: 16)
!267 = !DIDerivedType(tag: DW_TAG_member, name: "BufferOffset", scope: !263, file: !2, baseType: !147, size: 32, align: 32, offset: 32)
!268 = !DIDerivedType(tag: DW_TAG_member, name: "NtChallengeResponse", scope: !255, file: !2, baseType: !263, size: 64, align: 8, offset: 160)
!269 = !DIDerivedType(tag: DW_TAG_member, name: "DomainName", scope: !255, file: !2, baseType: !263, size: 64, align: 8, offset: 224)
!270 = !DIDerivedType(tag: DW_TAG_member, name: "UserName", scope: !255, file: !2, baseType: !263, size: 64, align: 8, offset: 288)
!271 = !DIDerivedType(tag: DW_TAG_member, name: "WorkstationName", scope: !255, file: !2, baseType: !263, size: 64, align: 8, offset: 352)
!272 = !DIDerivedType(tag: DW_TAG_member, name: "SessionKey", scope: !255, file: !2, baseType: !263, size: 64, align: 8, offset: 416)
!273 = !DIDerivedType(tag: DW_TAG_member, name: "NegotiateFlags", scope: !255, file: !2, baseType: !147, size: 32, align: 32, offset: 480)
!274 = !DIDerivedType(tag: DW_TAG_member, name: "UserString", scope: !255, file: !2, baseType: !275, align: 8, offset: 512)
!275 = !DICompositeType(tag: DW_TAG_structure_type, name: "__IncompleteArrayField<i8>", scope: !196, file: !2, align: 8, elements: !276, templateParams: !280, identifier: "e5312c3e6f76765d41d4ad08dc47c9ae")
!276 = !{!277, !282}
!277 = !DIDerivedType(tag: DW_TAG_member, name: "__0", scope: !275, file: !2, baseType: !278, align: 8)
!278 = !DICompositeType(tag: DW_TAG_structure_type, name: "PhantomData<i8>", scope: !279, file: !2, align: 8, elements: !15, templateParams: !280, identifier: "ee60210e34e47a88a55716306eadfba7")
!279 = !DINamespace(name: "marker", scope: !14)
!280 = !{!281}
!281 = !DITemplateTypeParameter(name: "T", type: !201)
!282 = !DIDerivedType(tag: DW_TAG_member, name: "__1", scope: !275, file: !2, baseType: !283, align: 8)
!283 = !DICompositeType(tag: DW_TAG_array_type, baseType: !201, align: 8, elements: !284)
!284 = !{!285}
!285 = !DISubrange(count: 0, lowerBound: 0)
!286 = !DIDerivedType(tag: DW_TAG_pointer_type, name: "*mut bindings::bindings_raw::ksmbd_conn", baseType: !287, size: 64, align: 64, dwarfAddressSpace: 0)
!287 = !DICompositeType(tag: DW_TAG_structure_type, name: "ksmbd_conn", scope: !196, file: !2, size: 4608, align: 64, elements: !288, templateParams: !15, identifier: "ad83a7e9b0523e1f861bd82672b77bd4")
!288 = !{!289, !320, !1172, !1177, !1178, !1185, !1186, !1187, !1188, !16464, !16508, !16524, !16525, !16526, !16527, !16528, !16529, !16530, !16531, !16532, !16533, !16534, !16535, !16536, !16537, !16538, !16543, !16544, !16552, !16553, !16554, !16561, !16562, !16563, !16564, !16565, !16566, !16567, !16568, !16569, !16570, !16592, !16593, !16609, !16610, !16611, !16612, !16613, !16614, !16615}
!289 = !DIDerivedType(tag: DW_TAG_member, name: "vals", scope: !287, file: !2, baseType: !290, size: 64, align: 64)
!290 = !DIDerivedType(tag: DW_TAG_pointer_type, name: "*mut bindings::bindings_raw::smb_version_values", baseType: !291, size: 64, align: 64, dwarfAddressSpace: 0)
!291 = !DICompositeType(tag: DW_TAG_structure_type, name: "smb_version_values", scope: !196, file: !2, size: 1088, align: 64, elements: !292, templateParams: !15, identifier: "6528459ef28953af85617f034962377c")
!292 = !{!293, !295, !296, !297, !298, !299, !300, !301, !302, !303, !304, !305, !306, !307, !308, !309, !310, !311, !312, !313, !314, !315, !316, !317, !318, !319}
!293 = !DIDerivedType(tag: DW_TAG_member, name: "version_string", scope: !291, file: !2, baseType: !294, size: 64, align: 64)
!294 = !DIDerivedType(tag: DW_TAG_pointer_type, name: "*mut i8", baseType: !201, size: 64, align: 64, dwarfAddressSpace: 0)
!295 = !DIDerivedType(tag: DW_TAG_member, name: "protocol_id", scope: !291, file: !2, baseType: !142, size: 16, align: 16, offset: 64)
!296 = !DIDerivedType(tag: DW_TAG_member, name: "lock_cmd", scope: !291, file: !2, baseType: !142, size: 16, align: 16, offset: 80)
!297 = !DIDerivedType(tag: DW_TAG_member, name: "capabilities", scope: !291, file: !2, baseType: !147, size: 32, align: 32, offset: 96)
!298 = !DIDerivedType(tag: DW_TAG_member, name: "max_read_size", scope: !291, file: !2, baseType: !147, size: 32, align: 32, offset: 128)
!299 = !DIDerivedType(tag: DW_TAG_member, name: "max_write_size", scope: !291, file: !2, baseType: !147, size: 32, align: 32, offset: 160)
!300 = !DIDerivedType(tag: DW_TAG_member, name: "max_trans_size", scope: !291, file: !2, baseType: !147, size: 32, align: 32, offset: 192)
!301 = !DIDerivedType(tag: DW_TAG_member, name: "max_credits", scope: !291, file: !2, baseType: !147, size: 32, align: 32, offset: 224)
!302 = !DIDerivedType(tag: DW_TAG_member, name: "large_lock_type", scope: !291, file: !2, baseType: !147, size: 32, align: 32, offset: 256)
!303 = !DIDerivedType(tag: DW_TAG_member, name: "exclusive_lock_type", scope: !291, file: !2, baseType: !147, size: 32, align: 32, offset: 288)
!304 = !DIDerivedType(tag: DW_TAG_member, name: "shared_lock_type", scope: !291, file: !2, baseType: !147, size: 32, align: 32, offset: 320)
!305 = !DIDerivedType(tag: DW_TAG_member, name: "unlock_lock_type", scope: !291, file: !2, baseType: !147, size: 32, align: 32, offset: 352)
!306 = !DIDerivedType(tag: DW_TAG_member, name: "header_size", scope: !291, file: !2, baseType: !9, size: 64, align: 64, offset: 384)
!307 = !DIDerivedType(tag: DW_TAG_member, name: "max_header_size", scope: !291, file: !2, baseType: !9, size: 64, align: 64, offset: 448)
!308 = !DIDerivedType(tag: DW_TAG_member, name: "read_rsp_size", scope: !291, file: !2, baseType: !9, size: 64, align: 64, offset: 512)
!309 = !DIDerivedType(tag: DW_TAG_member, name: "cap_unix", scope: !291, file: !2, baseType: !147, size: 32, align: 32, offset: 576)
!310 = !DIDerivedType(tag: DW_TAG_member, name: "cap_nt_find", scope: !291, file: !2, baseType: !147, size: 32, align: 32, offset: 608)
!311 = !DIDerivedType(tag: DW_TAG_member, name: "cap_large_files", scope: !291, file: !2, baseType: !147, size: 32, align: 32, offset: 640)
!312 = !DIDerivedType(tag: DW_TAG_member, name: "signing_enabled", scope: !291, file: !2, baseType: !142, size: 16, align: 16, offset: 672)
!313 = !DIDerivedType(tag: DW_TAG_member, name: "signing_required", scope: !291, file: !2, baseType: !142, size: 16, align: 16, offset: 688)
!314 = !DIDerivedType(tag: DW_TAG_member, name: "create_lease_size", scope: !291, file: !2, baseType: !9, size: 64, align: 64, offset: 704)
!315 = !DIDerivedType(tag: DW_TAG_member, name: "create_durable_size", scope: !291, file: !2, baseType: !9, size: 64, align: 64, offset: 768)
!316 = !DIDerivedType(tag: DW_TAG_member, name: "create_durable_v2_size", scope: !291, file: !2, baseType: !9, size: 64, align: 64, offset: 832)
!317 = !DIDerivedType(tag: DW_TAG_member, name: "create_mxac_size", scope: !291, file: !2, baseType: !9, size: 64, align: 64, offset: 896)
!318 = !DIDerivedType(tag: DW_TAG_member, name: "create_disk_id_size", scope: !291, file: !2, baseType: !9, size: 64, align: 64, offset: 960)
!319 = !DIDerivedType(tag: DW_TAG_member, name: "create_posix_size", scope: !291, file: !2, baseType: !9, size: 64, align: 64, offset: 1024)
!320 = !DIDerivedType(tag: DW_TAG_member, name: "ops", scope: !287, file: !2, baseType: !321, size: 64, align: 64, offset: 64)
!321 = !DIDerivedType(tag: DW_TAG_pointer_type, name: "*mut bindings::bindings_raw::smb_version_ops", baseType: !322, size: 64, align: 64, dwarfAddressSpace: 0)
!322 = !DICompositeType(tag: DW_TAG_structure_type, name: "smb_version_ops", scope: !196, file: !2, size: 960, align: 64, elements: !323, templateParams: !15, identifier: "43beeff93b3b410fd01573f8773055bd")
!323 = !{!324, !1046, !1063, !1080, !1081, !1082, !1083, !1084, !1101, !1102, !1119, !1136, !1153, !1170, !1171}
!324 = !DIDerivedType(tag: DW_TAG_member, name: "get_cmd_val", scope: !322, file: !2, baseType: !325, size: 64, align: 64)
!325 = !DICompositeType(tag: DW_TAG_structure_type, name: "Option<unsafe extern \22C\22 fn(*mut bindings::bindings_raw::ksmbd_work) -> u16>", scope: !153, file: !2, size: 64, align: 64, elements: !326, templateParams: !15, identifier: "74a6b9208199fb04b1a7e77d57444a2")
!326 = !{!327}
!327 = !DICompositeType(tag: DW_TAG_variant_part, scope: !325, file: !2, size: 64, align: 64, elements: !328, templateParams: !15, identifier: "77e5aff402c0eca2d2b6d21ebeccd0e2", discriminator: !1045)
!328 = !{!329, !1041}
!329 = !DIDerivedType(tag: DW_TAG_member, name: "None", scope: !327, file: !2, baseType: !330, size: 64, align: 64, extraData: i64 0)
!330 = !DICompositeType(tag: DW_TAG_structure_type, name: "None", scope: !325, file: !2, size: 64, align: 64, elements: !15, templateParams: !331, identifier: "a9877b622e9dfebd1a927080fac4269b")
!331 = !{!332}
!332 = !DITemplateTypeParameter(name: "T", type: !333)
!333 = !DIDerivedType(tag: DW_TAG_pointer_type, name: "unsafe extern \22C\22 fn(*mut bindings::bindings_raw::ksmbd_work) -> u16", baseType: !334, size: 64, align: 64, dwarfAddressSpace: 0)
!334 = !DISubroutineType(types: !335)
!335 = !{!142, !336}
!336 = !DIDerivedType(tag: DW_TAG_pointer_type, name: "*mut bindings::bindings_raw::ksmbd_work", baseType: !337, size: 64, align: 64, dwarfAddressSpace: 0)
!337 = !DICompositeType(tag: DW_TAG_structure_type, name: "ksmbd_work", scope: !196, file: !2, size: 1920, align: 64, elements: !338, templateParams: !15, identifier: "3309bca4a02f4ddbc909fe8e67aab135")
!338 = !{!339, !340, !449, !470, !471, !472, !473, !474, !475, !476, !477, !478, !998, !999, !1000, !1001, !1002, !1003, !1004, !1015, !1016, !1017, !1019, !1036, !1037, !1038, !1039, !1040}
!339 = !DIDerivedType(tag: DW_TAG_member, name: "conn", scope: !337, file: !2, baseType: !286, size: 64, align: 64)
!340 = !DIDerivedType(tag: DW_TAG_member, name: "sess", scope: !337, file: !2, baseType: !341, size: 64, align: 64, offset: 64)
!341 = !DIDerivedType(tag: DW_TAG_pointer_type, name: "*mut bindings::bindings_raw::ksmbd_session", baseType: !342, size: 64, align: 64, dwarfAddressSpace: 0)
!342 = !DICompositeType(tag: DW_TAG_structure_type, name: "ksmbd_session", scope: !196, file: !2, size: 2240, align: 64, elements: !343, templateParams: !15, identifier: "234b8095fa77bdd3d65f965341fffbe3")
!343 = !{!344, !345, !346, !347, !358, !359, !360, !362, !363, !364, !365, !367, !371, !378, !388, !389, !393, !394, !398, !399, !401}
!344 = !DIDerivedType(tag: DW_TAG_member, name: "id", scope: !342, file: !2, baseType: !25, size: 64, align: 64)
!345 = !DIDerivedType(tag: DW_TAG_member, name: "dialect", scope: !342, file: !2, baseType: !142, size: 16, align: 16, offset: 64)
!346 = !DIDerivedType(tag: DW_TAG_member, name: "ClientGUID", scope: !342, file: !2, baseType: !200, size: 128, align: 8, offset: 80)
!347 = !DIDerivedType(tag: DW_TAG_member, name: "user", scope: !342, file: !2, baseType: !348, size: 64, align: 64, offset: 256)
!348 = !DIDerivedType(tag: DW_TAG_pointer_type, name: "*mut bindings::bindings_raw::ksmbd_user", baseType: !349, size: 64, align: 64, dwarfAddressSpace: 0)
!349 = !DICompositeType(tag: DW_TAG_structure_type, name: "ksmbd_user", scope: !196, file: !2, size: 384, align: 64, elements: !350, templateParams: !15, identifier: "c0fde510f9c18520702f8cccc98418f0")
!350 = !{!351, !352, !353, !354, !355, !356, !357}
!351 = !DIDerivedType(tag: DW_TAG_member, name: "flags", scope: !349, file: !2, baseType: !142, size: 16, align: 16)
!352 = !DIDerivedType(tag: DW_TAG_member, name: "uid", scope: !349, file: !2, baseType: !147, size: 32, align: 32, offset: 32)
!353 = !DIDerivedType(tag: DW_TAG_member, name: "gid", scope: !349, file: !2, baseType: !147, size: 32, align: 32, offset: 64)
!354 = !DIDerivedType(tag: DW_TAG_member, name: "name", scope: !349, file: !2, baseType: !294, size: 64, align: 64, offset: 128)
!355 = !DIDerivedType(tag: DW_TAG_member, name: "passkey_sz", scope: !349, file: !2, baseType: !9, size: 64, align: 64, offset: 192)
!356 = !DIDerivedType(tag: DW_TAG_member, name: "passkey", scope: !349, file: !2, baseType: !294, size: 64, align: 64, offset: 256)
!357 = !DIDerivedType(tag: DW_TAG_member, name: "failed_login_count", scope: !349, file: !2, baseType: !147, size: 32, align: 32, offset: 320)
!358 = !DIDerivedType(tag: DW_TAG_member, name: "sequence_number", scope: !342, file: !2, baseType: !147, size: 32, align: 32, offset: 320)
!359 = !DIDerivedType(tag: DW_TAG_member, name: "flags", scope: !342, file: !2, baseType: !147, size: 32, align: 32, offset: 352)
!360 = !DIDerivedType(tag: DW_TAG_member, name: "sign", scope: !342, file: !2, baseType: !361, size: 8, align: 8, offset: 384)
!361 = !DIBasicType(name: "bool", size: 8, encoding: DW_ATE_boolean)
!362 = !DIDerivedType(tag: DW_TAG_member, name: "enc", scope: !342, file: !2, baseType: !361, size: 8, align: 8, offset: 392)
!363 = !DIDerivedType(tag: DW_TAG_member, name: "is_anonymous", scope: !342, file: !2, baseType: !361, size: 8, align: 8, offset: 400)
!364 = !DIDerivedType(tag: DW_TAG_member, name: "state", scope: !342, file: !2, baseType: !253, size: 32, align: 32, offset: 416)
!365 = !DIDerivedType(tag: DW_TAG_member, name: "Preauth_HashValue", scope: !342, file: !2, baseType: !366, size: 64, align: 64, offset: 448)
!366 = !DIDerivedType(tag: DW_TAG_pointer_type, name: "*mut u8", baseType: !94, size: 64, align: 64, dwarfAddressSpace: 0)
!367 = !DIDerivedType(tag: DW_TAG_member, name: "sess_key", scope: !342, file: !2, baseType: !368, size: 320, align: 8, offset: 512)
!368 = !DICompositeType(tag: DW_TAG_array_type, baseType: !201, size: 320, align: 8, elements: !369)
!369 = !{!370}
!370 = !DISubrange(count: 40, lowerBound: 0)
!371 = !DIDerivedType(tag: DW_TAG_member, name: "hlist", scope: !342, file: !2, baseType: !372, size: 128, align: 64, offset: 832)
!372 = !DICompositeType(tag: DW_TAG_structure_type, name: "hlist_node", scope: !196, file: !2, size: 128, align: 64, elements: !373, templateParams: !15, identifier: "2ff4f2d9fd203ed46a3bfaed715f280")
!373 = !{!374, !376}
!374 = !DIDerivedType(tag: DW_TAG_member, name: "next", scope: !372, file: !2, baseType: !375, size: 64, align: 64)
!375 = !DIDerivedType(tag: DW_TAG_pointer_type, name: "*mut bindings::bindings_raw::hlist_node", baseType: !372, size: 64, align: 64, dwarfAddressSpace: 0)
!376 = !DIDerivedType(tag: DW_TAG_member, name: "pprev", scope: !372, file: !2, baseType: !377, size: 64, align: 64, offset: 64)
!377 = !DIDerivedType(tag: DW_TAG_pointer_type, name: "*mut *mut bindings::bindings_raw::hlist_node", baseType: !375, size: 64, align: 64, dwarfAddressSpace: 0)
!378 = !DIDerivedType(tag: DW_TAG_member, name: "ksmbd_chann_list", scope: !342, file: !2, baseType: !379, size: 128, align: 64, offset: 960)
!379 = !DICompositeType(tag: DW_TAG_structure_type, name: "xarray", scope: !196, file: !2, size: 128, align: 64, elements: !380, templateParams: !15, identifier: "34c8e9a995f2f90904fa1839515db3e")
!380 = !{!381, !385, !386}
!381 = !DIDerivedType(tag: DW_TAG_member, name: "xa_lock", scope: !379, file: !2, baseType: !382, size: 32, align: 32)
!382 = !DICompositeType(tag: DW_TAG_structure_type, name: "spinlock", scope: !196, file: !2, size: 32, align: 32, elements: !383, templateParams: !15, identifier: "da6b1f76873a1d94d9fe1444e94b7e1c")
!383 = !{!384}
!384 = !DIDerivedType(tag: DW_TAG_member, name: "_bindgen_opaque_blob", scope: !382, file: !2, baseType: !147, size: 32, align: 32)
!385 = !DIDerivedType(tag: DW_TAG_member, name: "xa_flags", scope: !379, file: !2, baseType: !147, size: 32, align: 32, offset: 32)
!386 = !DIDerivedType(tag: DW_TAG_member, name: "xa_head", scope: !379, file: !2, baseType: !387, size: 64, align: 64, offset: 64)
!387 = !DIDerivedType(tag: DW_TAG_pointer_type, name: "*mut core::ffi::c_void", baseType: !100, size: 64, align: 64, dwarfAddressSpace: 0)
!388 = !DIDerivedType(tag: DW_TAG_member, name: "tree_conns", scope: !342, file: !2, baseType: !379, size: 128, align: 64, offset: 1088)
!389 = !DIDerivedType(tag: DW_TAG_member, name: "tree_conn_ida", scope: !342, file: !2, baseType: !390, size: 128, align: 64, offset: 1216)
!390 = !DICompositeType(tag: DW_TAG_structure_type, name: "ida", scope: !196, file: !2, size: 128, align: 64, elements: !391, templateParams: !15, identifier: "beed5cdb89fb450b85d288386105acee")
!391 = !{!392}
!392 = !DIDerivedType(tag: DW_TAG_member, name: "xa", scope: !390, file: !2, baseType: !379, size: 128, align: 64)
!393 = !DIDerivedType(tag: DW_TAG_member, name: "rpc_handle_list", scope: !342, file: !2, baseType: !379, size: 128, align: 64, offset: 1344)
!394 = !DIDerivedType(tag: DW_TAG_member, name: "smb3encryptionkey", scope: !342, file: !2, baseType: !395, size: 256, align: 8, offset: 1472)
!395 = !DICompositeType(tag: DW_TAG_array_type, baseType: !94, size: 256, align: 8, elements: !396)
!396 = !{!397}
!397 = !DISubrange(count: 32, lowerBound: 0)
!398 = !DIDerivedType(tag: DW_TAG_member, name: "smb3decryptionkey", scope: !342, file: !2, baseType: !395, size: 256, align: 8, offset: 1728)
!399 = !DIDerivedType(tag: DW_TAG_member, name: "smb3signingkey", scope: !342, file: !2, baseType: !400, size: 128, align: 8, offset: 1984)
!400 = !DICompositeType(tag: DW_TAG_array_type, baseType: !94, size: 128, align: 8, elements: !202)
!401 = !DIDerivedType(tag: DW_TAG_member, name: "file_table", scope: !342, file: !2, baseType: !402, size: 128, align: 64, offset: 2112)
!402 = !DICompositeType(tag: DW_TAG_structure_type, name: "ksmbd_file_table", scope: !196, file: !2, size: 128, align: 64, elements: !403, templateParams: !15, identifier: "25bf76505b8cb6241d7bb8bb0ac61ea1")
!403 = !{!404, !442}
!404 = !DIDerivedType(tag: DW_TAG_member, name: "lock", scope: !402, file: !2, baseType: !405, size: 64, align: 32)
!405 = !DICompositeType(tag: DW_TAG_structure_type, name: "rwlock_t", scope: !196, file: !2, size: 64, align: 32, elements: !406, templateParams: !15, identifier: "8658957c6d4280f07121bd762469f24d")
!406 = !{!407}
!407 = !DIDerivedType(tag: DW_TAG_member, name: "raw_lock", scope: !405, file: !2, baseType: !408, size: 64, align: 32)
!408 = !DICompositeType(tag: DW_TAG_structure_type, name: "qrwlock", scope: !196, file: !2, size: 64, align: 32, elements: !409, templateParams: !15, identifier: "1aa861d815ea71c02e92617ed8359864")
!409 = !{!410, !424}
!410 = !DIDerivedType(tag: DW_TAG_member, name: "__bindgen_anon_1", scope: !408, file: !2, baseType: !411, size: 32, align: 32)
!411 = !DICompositeType(tag: DW_TAG_union_type, name: "qrwlock__bindgen_ty_1", scope: !196, file: !2, size: 32, align: 32, elements: !412, templateParams: !15, identifier: "cd4c5a27f5b8df67496721378a08c340")
!412 = !{!413, !417, !423}
!413 = !DIDerivedType(tag: DW_TAG_member, name: "cnts", scope: !411, file: !2, baseType: !414, size: 32, align: 32)
!414 = !DICompositeType(tag: DW_TAG_structure_type, name: "atomic_t", scope: !196, file: !2, size: 32, align: 32, elements: !415, templateParams: !15, identifier: "4d9bba9d672b6a864cebcdec52eb623f")
!415 = !{!416}
!416 = !DIDerivedType(tag: DW_TAG_member, name: "counter", scope: !414, file: !2, baseType: !253, size: 32, align: 32)
!417 = !DIDerivedType(tag: DW_TAG_member, name: "__bindgen_anon_1", scope: !411, file: !2, baseType: !418, size: 32, align: 8)
!418 = !DICompositeType(tag: DW_TAG_structure_type, name: "qrwlock__bindgen_ty_1__bindgen_ty_1", scope: !196, file: !2, size: 32, align: 8, elements: !419, templateParams: !15, identifier: "74c34190be7fca45443fd5f1941a9b85")
!419 = !{!420, !421}
!420 = !DIDerivedType(tag: DW_TAG_member, name: "wlocked", scope: !418, file: !2, baseType: !94, size: 8, align: 8)
!421 = !DIDerivedType(tag: DW_TAG_member, name: "__lstate", scope: !418, file: !2, baseType: !422, size: 24, align: 8, offset: 8)
!422 = !DICompositeType(tag: DW_TAG_array_type, baseType: !94, size: 24, align: 8, elements: !176)
!423 = !DIDerivedType(tag: DW_TAG_member, name: "_bindgen_union_align", scope: !411, file: !2, baseType: !147, size: 32, align: 32)
!424 = !DIDerivedType(tag: DW_TAG_member, name: "wait_lock", scope: !408, file: !2, baseType: !425, size: 32, align: 32, offset: 32)
!425 = !DICompositeType(tag: DW_TAG_structure_type, name: "qspinlock", scope: !196, file: !2, size: 32, align: 32, elements: !426, templateParams: !15, identifier: "49445f49735416c6fa2f6b2fa578da60")
!426 = !{!427}
!427 = !DIDerivedType(tag: DW_TAG_member, name: "__bindgen_anon_1", scope: !425, file: !2, baseType: !428, size: 32, align: 32)
!428 = !DICompositeType(tag: DW_TAG_union_type, name: "qspinlock__bindgen_ty_1", scope: !196, file: !2, size: 32, align: 32, elements: !429, templateParams: !15, identifier: "498a34d416898190c826736e1d25061b")
!429 = !{!430, !431, !436, !441}
!430 = !DIDerivedType(tag: DW_TAG_member, name: "val", scope: !428, file: !2, baseType: !414, size: 32, align: 32)
!431 = !DIDerivedType(tag: DW_TAG_member, name: "__bindgen_anon_1", scope: !428, file: !2, baseType: !432, size: 16, align: 8)
!432 = !DICompositeType(tag: DW_TAG_structure_type, name: "qspinlock__bindgen_ty_1__bindgen_ty_1", scope: !196, file: !2, size: 16, align: 8, elements: !433, templateParams: !15, identifier: "388395434beea5e61eaf2af76ba421db")
!433 = !{!434, !435}
!434 = !DIDerivedType(tag: DW_TAG_member, name: "locked", scope: !432, file: !2, baseType: !94, size: 8, align: 8)
!435 = !DIDerivedType(tag: DW_TAG_member, name: "pending", scope: !432, file: !2, baseType: !94, size: 8, align: 8, offset: 8)
!436 = !DIDerivedType(tag: DW_TAG_member, name: "__bindgen_anon_2", scope: !428, file: !2, baseType: !437, size: 32, align: 16)
!437 = !DICompositeType(tag: DW_TAG_structure_type, name: "qspinlock__bindgen_ty_1__bindgen_ty_2", scope: !196, file: !2, size: 32, align: 16, elements: !438, templateParams: !15, identifier: "206c5c0d655006d36e2191427d569433")
!438 = !{!439, !440}
!439 = !DIDerivedType(tag: DW_TAG_member, name: "locked_pending", scope: !437, file: !2, baseType: !142, size: 16, align: 16)
!440 = !DIDerivedType(tag: DW_TAG_member, name: "tail", scope: !437, file: !2, baseType: !142, size: 16, align: 16, offset: 16)
!441 = !DIDerivedType(tag: DW_TAG_member, name: "_bindgen_union_align", scope: !428, file: !2, baseType: !147, size: 32, align: 32)
!442 = !DIDerivedType(tag: DW_TAG_member, name: "idr", scope: !402, file: !2, baseType: !443, size: 64, align: 64, offset: 64)
!443 = !DIDerivedType(tag: DW_TAG_pointer_type, name: "*mut bindings::bindings_raw::idr", baseType: !444, size: 64, align: 64, dwarfAddressSpace: 0)
!444 = !DICompositeType(tag: DW_TAG_structure_type, name: "idr", scope: !196, file: !2, size: 192, align: 64, elements: !445, templateParams: !15, identifier: "497fb5a519c7c037b881204ff82c306b")
!445 = !{!446, !447, !448}
!446 = !DIDerivedType(tag: DW_TAG_member, name: "idr_rt", scope: !444, file: !2, baseType: !379, size: 128, align: 64)
!447 = !DIDerivedType(tag: DW_TAG_member, name: "idr_base", scope: !444, file: !2, baseType: !147, size: 32, align: 32, offset: 128)
!448 = !DIDerivedType(tag: DW_TAG_member, name: "idr_next", scope: !444, file: !2, baseType: !147, size: 32, align: 32, offset: 160)
!449 = !DIDerivedType(tag: DW_TAG_member, name: "tcon", scope: !337, file: !2, baseType: !450, size: 64, align: 64, offset: 128)
!450 = !DIDerivedType(tag: DW_TAG_pointer_type, name: "*mut bindings::bindings_raw::ksmbd_tree_connect", baseType: !451, size: 64, align: 64, dwarfAddressSpace: 0)
!451 = !DICompositeType(tag: DW_TAG_structure_type, name: "ksmbd_tree_connect", scope: !196, file: !2, size: 384, align: 64, elements: !452, templateParams: !15, identifier: "56d54766ad7cc5eefe4a02d893478761")
!452 = !{!453, !454, !455, !461, !462, !468, !469}
!453 = !DIDerivedType(tag: DW_TAG_member, name: "id", scope: !451, file: !2, baseType: !253, size: 32, align: 32)
!454 = !DIDerivedType(tag: DW_TAG_member, name: "flags", scope: !451, file: !2, baseType: !147, size: 32, align: 32, offset: 32)
!455 = !DIDerivedType(tag: DW_TAG_member, name: "share_conf", scope: !451, file: !2, baseType: !456, size: 64, align: 64, offset: 64)
!456 = !DIDerivedType(tag: DW_TAG_pointer_type, name: "*mut bindings::bindings_raw::ksmbd_share_config", baseType: !457, size: 64, align: 64, dwarfAddressSpace: 0)
!457 = !DICompositeType(tag: DW_TAG_structure_type, name: "ksmbd_share_config", scope: !196, file: !2, align: 8, elements: !458, templateParams: !15, identifier: "43237ec57bbc22f668c48742f3a04ccc")
!458 = !{!459}
!459 = !DIDerivedType(tag: DW_TAG_member, name: "_unused", scope: !457, file: !2, baseType: !460, align: 8)
!460 = !DICompositeType(tag: DW_TAG_array_type, baseType: !94, align: 8, elements: !284)
!461 = !DIDerivedType(tag: DW_TAG_member, name: "user", scope: !451, file: !2, baseType: !348, size: 64, align: 64, offset: 128)
!462 = !DIDerivedType(tag: DW_TAG_member, name: "list", scope: !451, file: !2, baseType: !463, size: 128, align: 64, offset: 192)
!463 = !DICompositeType(tag: DW_TAG_structure_type, name: "list_head", scope: !196, file: !2, size: 128, align: 64, elements: !464, templateParams: !15, identifier: "c81e9f04768e43deba314724f44f5c5f")
!464 = !{!465, !467}
!465 = !DIDerivedType(tag: DW_TAG_member, name: "next", scope: !463, file: !2, baseType: !466, size: 64, align: 64)
!466 = !DIDerivedType(tag: DW_TAG_pointer_type, name: "*mut bindings::bindings_raw::list_head", baseType: !463, size: 64, align: 64, dwarfAddressSpace: 0)
!467 = !DIDerivedType(tag: DW_TAG_member, name: "prev", scope: !463, file: !2, baseType: !466, size: 64, align: 64, offset: 64)
!468 = !DIDerivedType(tag: DW_TAG_member, name: "maximal_access", scope: !451, file: !2, baseType: !253, size: 32, align: 32, offset: 320)
!469 = !DIDerivedType(tag: DW_TAG_member, name: "posix_extensions", scope: !451, file: !2, baseType: !361, size: 8, align: 8, offset: 352)
!470 = !DIDerivedType(tag: DW_TAG_member, name: "request_buf", scope: !337, file: !2, baseType: !387, size: 64, align: 64, offset: 192)
!471 = !DIDerivedType(tag: DW_TAG_member, name: "response_buf", scope: !337, file: !2, baseType: !387, size: 64, align: 64, offset: 256)
!472 = !DIDerivedType(tag: DW_TAG_member, name: "aux_payload_buf", scope: !337, file: !2, baseType: !387, size: 64, align: 64, offset: 320)
!473 = !DIDerivedType(tag: DW_TAG_member, name: "next_smb2_rcv_hdr_off", scope: !337, file: !2, baseType: !253, size: 32, align: 32, offset: 384)
!474 = !DIDerivedType(tag: DW_TAG_member, name: "next_smb2_rsp_hdr_off", scope: !337, file: !2, baseType: !253, size: 32, align: 32, offset: 416)
!475 = !DIDerivedType(tag: DW_TAG_member, name: "compound_fid", scope: !337, file: !2, baseType: !25, size: 64, align: 64, offset: 448)
!476 = !DIDerivedType(tag: DW_TAG_member, name: "compound_pfid", scope: !337, file: !2, baseType: !25, size: 64, align: 64, offset: 512)
!477 = !DIDerivedType(tag: DW_TAG_member, name: "compound_sid", scope: !337, file: !2, baseType: !25, size: 64, align: 64, offset: 576)
!478 = !DIDerivedType(tag: DW_TAG_member, name: "saved_cred", scope: !337, file: !2, baseType: !479, size: 64, align: 64, offset: 640)
!479 = !DIDerivedType(tag: DW_TAG_pointer_type, name: "*const bindings::bindings_raw::cred", baseType: !480, size: 64, align: 64, dwarfAddressSpace: 0)
!480 = !DICompositeType(tag: DW_TAG_structure_type, name: "cred", scope: !196, file: !2, size: 1344, align: 64, elements: !481, templateParams: !15, identifier: "108d1087fbbe64fffea77f8c192615c2")
!481 = !{!482, !483, !487, !491, !492, !493, !494, !495, !496, !497, !498, !502, !503, !504, !505, !506, !507, !687, !688, !689, !690, !718, !973, !974, !989}
!482 = !DIDerivedType(tag: DW_TAG_member, name: "usage", scope: !480, file: !2, baseType: !414, size: 32, align: 32)
!483 = !DIDerivedType(tag: DW_TAG_member, name: "uid", scope: !480, file: !2, baseType: !484, size: 32, align: 32, offset: 32)
!484 = !DICompositeType(tag: DW_TAG_structure_type, name: "kuid_t", scope: !196, file: !2, size: 32, align: 32, elements: !485, templateParams: !15, identifier: "9c54e1c9b844956a9dc2f38d6a268ded")
!485 = !{!486}
!486 = !DIDerivedType(tag: DW_TAG_member, name: "val", scope: !484, file: !2, baseType: !147, size: 32, align: 32)
!487 = !DIDerivedType(tag: DW_TAG_member, name: "gid", scope: !480, file: !2, baseType: !488, size: 32, align: 32, offset: 64)
!488 = !DICompositeType(tag: DW_TAG_structure_type, name: "kgid_t", scope: !196, file: !2, size: 32, align: 32, elements: !489, templateParams: !15, identifier: "af56ea1e3fafa46b3f172125d4e0a853")
!489 = !{!490}
!490 = !DIDerivedType(tag: DW_TAG_member, name: "val", scope: !488, file: !2, baseType: !147, size: 32, align: 32)
!491 = !DIDerivedType(tag: DW_TAG_member, name: "suid", scope: !480, file: !2, baseType: !484, size: 32, align: 32, offset: 96)
!492 = !DIDerivedType(tag: DW_TAG_member, name: "sgid", scope: !480, file: !2, baseType: !488, size: 32, align: 32, offset: 128)
!493 = !DIDerivedType(tag: DW_TAG_member, name: "euid", scope: !480, file: !2, baseType: !484, size: 32, align: 32, offset: 160)
!494 = !DIDerivedType(tag: DW_TAG_member, name: "egid", scope: !480, file: !2, baseType: !488, size: 32, align: 32, offset: 192)
!495 = !DIDerivedType(tag: DW_TAG_member, name: "fsuid", scope: !480, file: !2, baseType: !484, size: 32, align: 32, offset: 224)
!496 = !DIDerivedType(tag: DW_TAG_member, name: "fsgid", scope: !480, file: !2, baseType: !488, size: 32, align: 32, offset: 256)
!497 = !DIDerivedType(tag: DW_TAG_member, name: "securebits", scope: !480, file: !2, baseType: !147, size: 32, align: 32, offset: 288)
!498 = !DIDerivedType(tag: DW_TAG_member, name: "cap_inheritable", scope: !480, file: !2, baseType: !499, size: 64, align: 64, offset: 320)
!499 = !DICompositeType(tag: DW_TAG_structure_type, name: "kernel_cap_t", scope: !196, file: !2, size: 64, align: 64, elements: !500, templateParams: !15, identifier: "dd3e29427d3134c523d563d156589aa5")
!500 = !{!501}
!501 = !DIDerivedType(tag: DW_TAG_member, name: "val", scope: !499, file: !2, baseType: !25, size: 64, align: 64)
!502 = !DIDerivedType(tag: DW_TAG_member, name: "cap_permitted", scope: !480, file: !2, baseType: !499, size: 64, align: 64, offset: 384)
!503 = !DIDerivedType(tag: DW_TAG_member, name: "cap_effective", scope: !480, file: !2, baseType: !499, size: 64, align: 64, offset: 448)
!504 = !DIDerivedType(tag: DW_TAG_member, name: "cap_bset", scope: !480, file: !2, baseType: !499, size: 64, align: 64, offset: 512)
!505 = !DIDerivedType(tag: DW_TAG_member, name: "cap_ambient", scope: !480, file: !2, baseType: !499, size: 64, align: 64, offset: 576)
!506 = !DIDerivedType(tag: DW_TAG_member, name: "jit_keyring", scope: !480, file: !2, baseType: !94, size: 8, align: 8, offset: 640)
!507 = !DIDerivedType(tag: DW_TAG_member, name: "session_keyring", scope: !480, file: !2, baseType: !508, size: 64, align: 64, offset: 704)
!508 = !DIDerivedType(tag: DW_TAG_pointer_type, name: "*mut bindings::bindings_raw::key", baseType: !509, size: 64, align: 64, dwarfAddressSpace: 0)
!509 = !DICompositeType(tag: DW_TAG_structure_type, name: "key", scope: !196, file: !2, size: 1728, align: 64, elements: !510, templateParams: !15, identifier: "6a44af02a1bc5e511b146f105df3e725")
!510 = !{!511, !515, !516, !529, !547, !552, !553, !559, !560, !561, !562, !563, !564, !565, !567, !568, !635, !662}
!511 = !DIDerivedType(tag: DW_TAG_member, name: "usage", scope: !509, file: !2, baseType: !512, size: 32, align: 32)
!512 = !DICompositeType(tag: DW_TAG_structure_type, name: "refcount_struct", scope: !196, file: !2, size: 32, align: 32, elements: !513, templateParams: !15, identifier: "b85df1f5c155bf4a648e6c7124240ea6")
!513 = !{!514}
!514 = !DIDerivedType(tag: DW_TAG_member, name: "refs", scope: !512, file: !2, baseType: !414, size: 32, align: 32)
!515 = !DIDerivedType(tag: DW_TAG_member, name: "serial", scope: !509, file: !2, baseType: !253, size: 32, align: 32, offset: 32)
!516 = !DIDerivedType(tag: DW_TAG_member, name: "__bindgen_anon_1", scope: !509, file: !2, baseType: !517, size: 192, align: 64, offset: 64)
!517 = !DICompositeType(tag: DW_TAG_union_type, name: "key__bindgen_ty_1", scope: !196, file: !2, size: 192, align: 64, elements: !518, templateParams: !15, identifier: "9053fb047c53f9a73f8f2b4996ded9c")
!518 = !{!519, !520, !527}
!519 = !DIDerivedType(tag: DW_TAG_member, name: "graveyard_link", scope: !517, file: !2, baseType: !463, size: 128, align: 64)
!520 = !DIDerivedType(tag: DW_TAG_member, name: "serial_node", scope: !517, file: !2, baseType: !521, size: 192, align: 64)
!521 = !DICompositeType(tag: DW_TAG_structure_type, name: "rb_node", scope: !196, file: !2, size: 192, align: 64, elements: !522, templateParams: !15, identifier: "5dd90b4fefa0a2c0d4215158b1c0706c")
!522 = !{!523, !524, !526}
!523 = !DIDerivedType(tag: DW_TAG_member, name: "__rb_parent_color", scope: !521, file: !2, baseType: !25, size: 64, align: 64)
!524 = !DIDerivedType(tag: DW_TAG_member, name: "rb_right", scope: !521, file: !2, baseType: !525, size: 64, align: 64, offset: 64)
!525 = !DIDerivedType(tag: DW_TAG_pointer_type, name: "*mut bindings::bindings_raw::rb_node", baseType: !521, size: 64, align: 64, dwarfAddressSpace: 0)
!526 = !DIDerivedType(tag: DW_TAG_member, name: "rb_left", scope: !521, file: !2, baseType: !525, size: 64, align: 64, offset: 128)
!527 = !DIDerivedType(tag: DW_TAG_member, name: "_bindgen_union_align", scope: !517, file: !2, baseType: !528, size: 192, align: 64)
!528 = !DICompositeType(tag: DW_TAG_array_type, baseType: !25, size: 192, align: 64, elements: !176)
!529 = !DIDerivedType(tag: DW_TAG_member, name: "sem", scope: !509, file: !2, baseType: !530, size: 320, align: 64, offset: 256)
!530 = !DICompositeType(tag: DW_TAG_structure_type, name: "rw_semaphore", scope: !196, file: !2, size: 320, align: 64, elements: !531, templateParams: !15, identifier: "e89dd13d98512e3b66323810eb75f8b3")
!531 = !{!532, !537, !538, !542, !546}
!532 = !DIDerivedType(tag: DW_TAG_member, name: "count", scope: !530, file: !2, baseType: !533, size: 64, align: 64)
!533 = !DICompositeType(tag: DW_TAG_structure_type, name: "atomic64_t", scope: !196, file: !2, size: 64, align: 64, elements: !534, templateParams: !15, identifier: "1c1cc0b265e084f4c011d464e31f61fa")
!534 = !{!535}
!535 = !DIDerivedType(tag: DW_TAG_member, name: "counter", scope: !533, file: !2, baseType: !536, size: 64, align: 64)
!536 = !DIBasicType(name: "i64", size: 64, encoding: DW_ATE_signed)
!537 = !DIDerivedType(tag: DW_TAG_member, name: "owner", scope: !530, file: !2, baseType: !533, size: 64, align: 64, offset: 64)
!538 = !DIDerivedType(tag: DW_TAG_member, name: "osq", scope: !530, file: !2, baseType: !539, size: 32, align: 32, offset: 128)
!539 = !DICompositeType(tag: DW_TAG_structure_type, name: "optimistic_spin_queue", scope: !196, file: !2, size: 32, align: 32, elements: !540, templateParams: !15, identifier: "7301206b20b4559d8ae5fafc590fa7b9")
!540 = !{!541}
!541 = !DIDerivedType(tag: DW_TAG_member, name: "tail", scope: !539, file: !2, baseType: !414, size: 32, align: 32)
!542 = !DIDerivedType(tag: DW_TAG_member, name: "wait_lock", scope: !530, file: !2, baseType: !543, size: 32, align: 32, offset: 160)
!543 = !DICompositeType(tag: DW_TAG_structure_type, name: "raw_spinlock", scope: !196, file: !2, size: 32, align: 32, elements: !544, templateParams: !15, identifier: "20461e887be05cad10817c462859c2db")
!544 = !{!545}
!545 = !DIDerivedType(tag: DW_TAG_member, name: "raw_lock", scope: !543, file: !2, baseType: !425, size: 32, align: 32)
!546 = !DIDerivedType(tag: DW_TAG_member, name: "wait_list", scope: !530, file: !2, baseType: !463, size: 128, align: 64, offset: 192)
!547 = !DIDerivedType(tag: DW_TAG_member, name: "user", scope: !509, file: !2, baseType: !548, size: 64, align: 64, offset: 576)
!548 = !DIDerivedType(tag: DW_TAG_pointer_type, name: "*mut bindings::bindings_raw::key_user", baseType: !549, size: 64, align: 64, dwarfAddressSpace: 0)
!549 = !DICompositeType(tag: DW_TAG_structure_type, name: "key_user", scope: !196, file: !2, size: 8, align: 8, elements: !550, templateParams: !15, identifier: "720d1ef6bc5abd1d162cfbeafb60c691")
!550 = !{!551}
!551 = !DIDerivedType(tag: DW_TAG_member, name: "_address", scope: !549, file: !2, baseType: !94, size: 8, align: 8)
!552 = !DIDerivedType(tag: DW_TAG_member, name: "security", scope: !509, file: !2, baseType: !387, size: 64, align: 64, offset: 640)
!553 = !DIDerivedType(tag: DW_TAG_member, name: "__bindgen_anon_2", scope: !509, file: !2, baseType: !554, size: 64, align: 64, offset: 704)
!554 = !DICompositeType(tag: DW_TAG_union_type, name: "key__bindgen_ty_2", scope: !196, file: !2, size: 64, align: 64, elements: !555, templateParams: !15, identifier: "c8b3b37278efe812bbcc967c82821359")
!555 = !{!556, !557, !558}
!556 = !DIDerivedType(tag: DW_TAG_member, name: "expiry", scope: !554, file: !2, baseType: !536, size: 64, align: 64)
!557 = !DIDerivedType(tag: DW_TAG_member, name: "revoked_at", scope: !554, file: !2, baseType: !536, size: 64, align: 64)
!558 = !DIDerivedType(tag: DW_TAG_member, name: "_bindgen_union_align", scope: !554, file: !2, baseType: !25, size: 64, align: 64)
!559 = !DIDerivedType(tag: DW_TAG_member, name: "last_used_at", scope: !509, file: !2, baseType: !536, size: 64, align: 64, offset: 768)
!560 = !DIDerivedType(tag: DW_TAG_member, name: "uid", scope: !509, file: !2, baseType: !484, size: 32, align: 32, offset: 832)
!561 = !DIDerivedType(tag: DW_TAG_member, name: "gid", scope: !509, file: !2, baseType: !488, size: 32, align: 32, offset: 864)
!562 = !DIDerivedType(tag: DW_TAG_member, name: "perm", scope: !509, file: !2, baseType: !147, size: 32, align: 32, offset: 896)
!563 = !DIDerivedType(tag: DW_TAG_member, name: "quotalen", scope: !509, file: !2, baseType: !142, size: 16, align: 16, offset: 928)
!564 = !DIDerivedType(tag: DW_TAG_member, name: "datalen", scope: !509, file: !2, baseType: !142, size: 16, align: 16, offset: 944)
!565 = !DIDerivedType(tag: DW_TAG_member, name: "state", scope: !509, file: !2, baseType: !566, size: 16, align: 16, offset: 960)
!566 = !DIBasicType(name: "i16", size: 16, encoding: DW_ATE_signed)
!567 = !DIDerivedType(tag: DW_TAG_member, name: "flags", scope: !509, file: !2, baseType: !25, size: 64, align: 64, offset: 1024)
!568 = !DIDerivedType(tag: DW_TAG_member, name: "__bindgen_anon_3", scope: !509, file: !2, baseType: !569, size: 320, align: 64, offset: 1088)
!569 = !DICompositeType(tag: DW_TAG_union_type, name: "key__bindgen_ty_3", scope: !196, file: !2, size: 320, align: 64, elements: !570, templateParams: !15, identifier: "bd1b4b4b1bb09c28ad2a15a299ab8ee")
!570 = !{!571, !623, !631}
!571 = !DIDerivedType(tag: DW_TAG_member, name: "index_key", scope: !569, file: !2, baseType: !572, size: 320, align: 64)
!572 = !DICompositeType(tag: DW_TAG_structure_type, name: "keyring_index_key", scope: !196, file: !2, size: 320, align: 64, elements: !573, templateParams: !15, identifier: "62fca47011beb51d95a20be477869530")
!573 = !{!574, !575, !588, !593, !621}
!574 = !DIDerivedType(tag: DW_TAG_member, name: "hash", scope: !572, file: !2, baseType: !25, size: 64, align: 64)
!575 = !DIDerivedType(tag: DW_TAG_member, name: "__bindgen_anon_1", scope: !572, file: !2, baseType: !576, size: 64, align: 64, offset: 64)
!576 = !DICompositeType(tag: DW_TAG_union_type, name: "keyring_index_key__bindgen_ty_1", scope: !196, file: !2, size: 64, align: 64, elements: !577, templateParams: !15, identifier: "35e747839bcecd5eea7f8b2aceae8e0f")
!577 = !{!578, !586, !587}
!578 = !DIDerivedType(tag: DW_TAG_member, name: "__bindgen_anon_1", scope: !576, file: !2, baseType: !579, size: 64, align: 16)
!579 = !DICompositeType(tag: DW_TAG_structure_type, name: "keyring_index_key__bindgen_ty_1__bindgen_ty_1", scope: !196, file: !2, size: 64, align: 16, elements: !580, templateParams: !15, identifier: "fd53a71a8b0414f8bc0b1fe8327534e2")
!580 = !{!581, !582}
!581 = !DIDerivedType(tag: DW_TAG_member, name: "desc_len", scope: !579, file: !2, baseType: !142, size: 16, align: 16)
!582 = !DIDerivedType(tag: DW_TAG_member, name: "desc", scope: !579, file: !2, baseType: !583, size: 48, align: 8, offset: 16)
!583 = !DICompositeType(tag: DW_TAG_array_type, baseType: !201, size: 48, align: 8, elements: !584)
!584 = !{!585}
!585 = !DISubrange(count: 6, lowerBound: 0)
!586 = !DIDerivedType(tag: DW_TAG_member, name: "x", scope: !576, file: !2, baseType: !25, size: 64, align: 64)
!587 = !DIDerivedType(tag: DW_TAG_member, name: "_bindgen_union_align", scope: !576, file: !2, baseType: !25, size: 64, align: 64)
!588 = !DIDerivedType(tag: DW_TAG_member, name: "type_", scope: !572, file: !2, baseType: !589, size: 64, align: 64, offset: 128)
!589 = !DIDerivedType(tag: DW_TAG_pointer_type, name: "*mut bindings::bindings_raw::key_type", baseType: !590, size: 64, align: 64, dwarfAddressSpace: 0)
!590 = !DICompositeType(tag: DW_TAG_structure_type, name: "key_type", scope: !196, file: !2, align: 8, elements: !591, templateParams: !15, identifier: "9422e9a136556671fe482c374c59f46c")
!591 = !{!592}
!592 = !DIDerivedType(tag: DW_TAG_member, name: "_unused", scope: !590, file: !2, baseType: !460, align: 8)
!593 = !DIDerivedType(tag: DW_TAG_member, name: "domain_tag", scope: !572, file: !2, baseType: !594, size: 64, align: 64, offset: 192)
!594 = !DIDerivedType(tag: DW_TAG_pointer_type, name: "*mut bindings::bindings_raw::key_tag", baseType: !595, size: 64, align: 64, dwarfAddressSpace: 0)
!595 = !DICompositeType(tag: DW_TAG_structure_type, name: "key_tag", scope: !196, file: !2, size: 192, align: 64, elements: !596, templateParams: !15, identifier: "6da90ec3fc86b31cd7c302910584ea4a")
!596 = !{!597, !619, !620}
!597 = !DIDerivedType(tag: DW_TAG_member, name: "rcu", scope: !595, file: !2, baseType: !598, size: 128, align: 64)
!598 = !DICompositeType(tag: DW_TAG_structure_type, name: "callback_head", scope: !196, file: !2, size: 128, align: 64, elements: !599, templateParams: !15, identifier: "8dd129ab0bb476cd1fb686a9d6f6bfca")
!599 = !{!600, !602}
!600 = !DIDerivedType(tag: DW_TAG_member, name: "next", scope: !598, file: !2, baseType: !601, size: 64, align: 64)
!601 = !DIDerivedType(tag: DW_TAG_pointer_type, name: "*mut bindings::bindings_raw::callback_head", baseType: !598, size: 64, align: 64, dwarfAddressSpace: 0)
!602 = !DIDerivedType(tag: DW_TAG_member, name: "func", scope: !598, file: !2, baseType: !603, size: 64, align: 64, offset: 64)
!603 = !DICompositeType(tag: DW_TAG_structure_type, name: "Option<unsafe extern \22C\22 fn(*mut bindings::bindings_raw::callback_head)>", scope: !153, file: !2, size: 64, align: 64, elements: !604, templateParams: !15, identifier: "54fdc15fd797b848ad368d1b65a0c144")
!604 = !{!605}
!605 = !DICompositeType(tag: DW_TAG_variant_part, scope: !603, file: !2, size: 64, align: 64, elements: !606, templateParams: !15, identifier: "2cb7b31dad0eafa10d24a343cccbe85", discriminator: !618)
!606 = !{!607, !614}
!607 = !DIDerivedType(tag: DW_TAG_member, name: "None", scope: !605, file: !2, baseType: !608, size: 64, align: 64, extraData: i64 0)
!608 = !DICompositeType(tag: DW_TAG_structure_type, name: "None", scope: !603, file: !2, size: 64, align: 64, elements: !15, templateParams: !609, identifier: "cb640dab68ff746a61e5eb36c2e767")
!609 = !{!610}
!610 = !DITemplateTypeParameter(name: "T", type: !611)
!611 = !DIDerivedType(tag: DW_TAG_pointer_type, name: "unsafe extern \22C\22 fn(*mut bindings::bindings_raw::callback_head)", baseType: !612, size: 64, align: 64, dwarfAddressSpace: 0)
!612 = !DISubroutineType(types: !613)
!613 = !{null, !601}
!614 = !DIDerivedType(tag: DW_TAG_member, name: "Some", scope: !605, file: !2, baseType: !615, size: 64, align: 64)
!615 = !DICompositeType(tag: DW_TAG_structure_type, name: "Some", scope: !603, file: !2, size: 64, align: 64, elements: !616, templateParams: !609, identifier: "b7368eeac40081a86b5ef52d45cdb491")
!616 = !{!617}
!617 = !DIDerivedType(tag: DW_TAG_member, name: "__0", scope: !615, file: !2, baseType: !611, size: 64, align: 64)
!618 = !DIDerivedType(tag: DW_TAG_member, scope: !603, file: !2, baseType: !25, size: 64, align: 64, flags: DIFlagArtificial)
!619 = !DIDerivedType(tag: DW_TAG_member, name: "usage", scope: !595, file: !2, baseType: !512, size: 32, align: 32, offset: 128)
!620 = !DIDerivedType(tag: DW_TAG_member, name: "removed", scope: !595, file: !2, baseType: !361, size: 8, align: 8, offset: 160)
!621 = !DIDerivedType(tag: DW_TAG_member, name: "description", scope: !572, file: !2, baseType: !622, size: 64, align: 64, offset: 256)
!622 = !DIDerivedType(tag: DW_TAG_pointer_type, name: "*const i8", baseType: !201, size: 64, align: 64, dwarfAddressSpace: 0)
!623 = !DIDerivedType(tag: DW_TAG_member, name: "__bindgen_anon_1", scope: !569, file: !2, baseType: !624, size: 320, align: 64)
!624 = !DICompositeType(tag: DW_TAG_structure_type, name: "key__bindgen_ty_3__bindgen_ty_1", scope: !196, file: !2, size: 320, align: 64, elements: !625, templateParams: !15, identifier: "7417aa8bbe36f06d10ad1ac5d378f091")
!625 = !{!626, !627, !628, !629, !630}
!626 = !DIDerivedType(tag: DW_TAG_member, name: "hash", scope: !624, file: !2, baseType: !25, size: 64, align: 64)
!627 = !DIDerivedType(tag: DW_TAG_member, name: "len_desc", scope: !624, file: !2, baseType: !25, size: 64, align: 64, offset: 64)
!628 = !DIDerivedType(tag: DW_TAG_member, name: "type_", scope: !624, file: !2, baseType: !589, size: 64, align: 64, offset: 128)
!629 = !DIDerivedType(tag: DW_TAG_member, name: "domain_tag", scope: !624, file: !2, baseType: !594, size: 64, align: 64, offset: 192)
!630 = !DIDerivedType(tag: DW_TAG_member, name: "description", scope: !624, file: !2, baseType: !294, size: 64, align: 64, offset: 256)
!631 = !DIDerivedType(tag: DW_TAG_member, name: "_bindgen_union_align", scope: !569, file: !2, baseType: !632, size: 320, align: 64)
!632 = !DICompositeType(tag: DW_TAG_array_type, baseType: !25, size: 320, align: 64, elements: !633)
!633 = !{!634}
!634 = !DISubrange(count: 5, lowerBound: 0)
!635 = !DIDerivedType(tag: DW_TAG_member, name: "__bindgen_anon_4", scope: !509, file: !2, baseType: !636, size: 256, align: 64, offset: 1408)
!636 = !DICompositeType(tag: DW_TAG_union_type, name: "key__bindgen_ty_4", scope: !196, file: !2, size: 256, align: 64, elements: !637, templateParams: !15, identifier: "745b0922e2d4b8e08dd30dfc1d5a8698")
!637 = !{!638, !648, !661}
!638 = !DIDerivedType(tag: DW_TAG_member, name: "payload", scope: !636, file: !2, baseType: !639, size: 256, align: 64)
!639 = !DICompositeType(tag: DW_TAG_union_type, name: "key_payload", scope: !196, file: !2, size: 256, align: 64, elements: !640, templateParams: !15, identifier: "bb672ed315fb861d78c387e6af111d9c")
!640 = !{!641, !642, !646}
!641 = !DIDerivedType(tag: DW_TAG_member, name: "rcu_data0", scope: !639, file: !2, baseType: !387, size: 64, align: 64)
!642 = !DIDerivedType(tag: DW_TAG_member, name: "data", scope: !639, file: !2, baseType: !643, size: 256, align: 64)
!643 = !DICompositeType(tag: DW_TAG_array_type, baseType: !387, size: 256, align: 64, elements: !644)
!644 = !{!645}
!645 = !DISubrange(count: 4, lowerBound: 0)
!646 = !DIDerivedType(tag: DW_TAG_member, name: "_bindgen_union_align", scope: !639, file: !2, baseType: !647, size: 256, align: 64)
!647 = !DICompositeType(tag: DW_TAG_array_type, baseType: !25, size: 256, align: 64, elements: !644)
!648 = !DIDerivedType(tag: DW_TAG_member, name: "__bindgen_anon_1", scope: !636, file: !2, baseType: !649, size: 256, align: 64)
!649 = !DICompositeType(tag: DW_TAG_structure_type, name: "key__bindgen_ty_4__bindgen_ty_1", scope: !196, file: !2, size: 256, align: 64, elements: !650, templateParams: !15, identifier: "f1203baeaea9d69130c5f95c6cc520e6")
!650 = !{!651, !652}
!651 = !DIDerivedType(tag: DW_TAG_member, name: "name_link", scope: !649, file: !2, baseType: !463, size: 128, align: 64)
!652 = !DIDerivedType(tag: DW_TAG_member, name: "keys", scope: !649, file: !2, baseType: !653, size: 128, align: 64, offset: 128)
!653 = !DICompositeType(tag: DW_TAG_structure_type, name: "assoc_array", scope: !196, file: !2, size: 128, align: 64, elements: !654, templateParams: !15, identifier: "e02b1783cbc66d8d2f3e212cb12c4a5")
!654 = !{!655, !660}
!655 = !DIDerivedType(tag: DW_TAG_member, name: "root", scope: !653, file: !2, baseType: !656, size: 64, align: 64)
!656 = !DIDerivedType(tag: DW_TAG_pointer_type, name: "*mut bindings::bindings_raw::assoc_array_ptr", baseType: !657, size: 64, align: 64, dwarfAddressSpace: 0)
!657 = !DICompositeType(tag: DW_TAG_structure_type, name: "assoc_array_ptr", scope: !196, file: !2, size: 8, align: 8, elements: !658, templateParams: !15, identifier: "805d48190212515420aa22e1c9ee4b40")
!658 = !{!659}
!659 = !DIDerivedType(tag: DW_TAG_member, name: "_address", scope: !657, file: !2, baseType: !94, size: 8, align: 8)
!660 = !DIDerivedType(tag: DW_TAG_member, name: "nr_leaves_on_tree", scope: !653, file: !2, baseType: !25, size: 64, align: 64, offset: 64)
!661 = !DIDerivedType(tag: DW_TAG_member, name: "_bindgen_union_align", scope: !636, file: !2, baseType: !647, size: 256, align: 64)
!662 = !DIDerivedType(tag: DW_TAG_member, name: "restrict_link", scope: !509, file: !2, baseType: !663, size: 64, align: 64, offset: 1664)
!663 = !DIDerivedType(tag: DW_TAG_pointer_type, name: "*mut bindings::bindings_raw::key_restriction", baseType: !664, size: 64, align: 64, dwarfAddressSpace: 0)
!664 = !DICompositeType(tag: DW_TAG_structure_type, name: "key_restriction", scope: !196, file: !2, size: 192, align: 64, elements: !665, templateParams: !15, identifier: "d2eb3df6737567ff5c584b3f090437b0")
!665 = !{!666, !685, !686}
!666 = !DIDerivedType(tag: DW_TAG_member, name: "check", scope: !664, file: !2, baseType: !667, size: 64, align: 64)
!667 = !DICompositeType(tag: DW_TAG_structure_type, name: "Option<unsafe extern \22C\22 fn(*mut bindings::bindings_raw::key, *const bindings::bindings_raw::key_type, *const bindings::bindings_raw::key_payload, *mut bindings::bindings_raw::key) -> i32>", scope: !153, file: !2, size: 64, align: 64, elements: !668, templateParams: !15, identifier: "a9eac461f0ceaaf63f17f77116a86400")
!668 = !{!669}
!669 = !DICompositeType(tag: DW_TAG_variant_part, scope: !667, file: !2, size: 64, align: 64, elements: !670, templateParams: !15, identifier: "42e04fe4a238f516cee358d1b454af8d", discriminator: !684)
!670 = !{!671, !680}
!671 = !DIDerivedType(tag: DW_TAG_member, name: "None", scope: !669, file: !2, baseType: !672, size: 64, align: 64, extraData: i64 0)
!672 = !DICompositeType(tag: DW_TAG_structure_type, name: "None", scope: !667, file: !2, size: 64, align: 64, elements: !15, templateParams: !673, identifier: "752e42fb221344c2c7bd087422c7d12c")
!673 = !{!674}
!674 = !DITemplateTypeParameter(name: "T", type: !675)
!675 = !DIDerivedType(tag: DW_TAG_pointer_type, name: "unsafe extern \22C\22 fn(*mut bindings::bindings_raw::key, *const bindings::bindings_raw::key_type, *const bindings::bindings_raw::key_payload, *mut bindings::bindings_raw::key) -> i32", baseType: !676, size: 64, align: 64, dwarfAddressSpace: 0)
!676 = !DISubroutineType(types: !677)
!677 = !{!253, !508, !678, !679, !508}
!678 = !DIDerivedType(tag: DW_TAG_pointer_type, name: "*const bindings::bindings_raw::key_type", baseType: !590, size: 64, align: 64, dwarfAddressSpace: 0)
!679 = !DIDerivedType(tag: DW_TAG_pointer_type, name: "*const bindings::bindings_raw::key_payload", baseType: !639, size: 64, align: 64, dwarfAddressSpace: 0)
!680 = !DIDerivedType(tag: DW_TAG_member, name: "Some", scope: !669, file: !2, baseType: !681, size: 64, align: 64)
!681 = !DICompositeType(tag: DW_TAG_structure_type, name: "Some", scope: !667, file: !2, size: 64, align: 64, elements: !682, templateParams: !673, identifier: "7d4ef1e47a9d91119f146cee227b6be")
!682 = !{!683}
!683 = !DIDerivedType(tag: DW_TAG_member, name: "__0", scope: !681, file: !2, baseType: !675, size: 64, align: 64)
!684 = !DIDerivedType(tag: DW_TAG_member, scope: !667, file: !2, baseType: !25, size: 64, align: 64, flags: DIFlagArtificial)
!685 = !DIDerivedType(tag: DW_TAG_member, name: "key", scope: !664, file: !2, baseType: !508, size: 64, align: 64, offset: 64)
!686 = !DIDerivedType(tag: DW_TAG_member, name: "keytype", scope: !664, file: !2, baseType: !589, size: 64, align: 64, offset: 128)
!687 = !DIDerivedType(tag: DW_TAG_member, name: "process_keyring", scope: !480, file: !2, baseType: !508, size: 64, align: 64, offset: 768)
!688 = !DIDerivedType(tag: DW_TAG_member, name: "thread_keyring", scope: !480, file: !2, baseType: !508, size: 64, align: 64, offset: 832)
!689 = !DIDerivedType(tag: DW_TAG_member, name: "request_key_auth", scope: !480, file: !2, baseType: !508, size: 64, align: 64, offset: 896)
!690 = !DIDerivedType(tag: DW_TAG_member, name: "user", scope: !480, file: !2, baseType: !691, size: 64, align: 64, offset: 960)
!691 = !DIDerivedType(tag: DW_TAG_pointer_type, name: "*mut bindings::bindings_raw::user_struct", baseType: !692, size: 64, align: 64, dwarfAddressSpace: 0)
!692 = !DICompositeType(tag: DW_TAG_structure_type, name: "user_struct", scope: !196, file: !2, size: 1088, align: 64, elements: !693, templateParams: !15, identifier: "57840ede6e8a83b49d88fc5d04f11f88")
!693 = !{!694, !695, !703, !704, !705, !706, !707, !708}
!694 = !DIDerivedType(tag: DW_TAG_member, name: "__count", scope: !692, file: !2, baseType: !512, size: 32, align: 32)
!695 = !DIDerivedType(tag: DW_TAG_member, name: "epoll_watches", scope: !692, file: !2, baseType: !696, size: 320, align: 64, offset: 64)
!696 = !DICompositeType(tag: DW_TAG_structure_type, name: "percpu_counter", scope: !196, file: !2, size: 320, align: 64, elements: !697, templateParams: !15, identifier: "66340979f1ac94684b563316f4e377a1")
!697 = !{!698, !699, !700, !701}
!698 = !DIDerivedType(tag: DW_TAG_member, name: "lock", scope: !696, file: !2, baseType: !543, size: 32, align: 32)
!699 = !DIDerivedType(tag: DW_TAG_member, name: "count", scope: !696, file: !2, baseType: !536, size: 64, align: 64, offset: 64)
!700 = !DIDerivedType(tag: DW_TAG_member, name: "list", scope: !696, file: !2, baseType: !463, size: 128, align: 64, offset: 128)
!701 = !DIDerivedType(tag: DW_TAG_member, name: "counters", scope: !696, file: !2, baseType: !702, size: 64, align: 64, offset: 256)
!702 = !DIDerivedType(tag: DW_TAG_pointer_type, name: "*mut i32", baseType: !253, size: 64, align: 64, dwarfAddressSpace: 0)
!703 = !DIDerivedType(tag: DW_TAG_member, name: "unix_inflight", scope: !692, file: !2, baseType: !25, size: 64, align: 64, offset: 384)
!704 = !DIDerivedType(tag: DW_TAG_member, name: "pipe_bufs", scope: !692, file: !2, baseType: !533, size: 64, align: 64, offset: 448)
!705 = !DIDerivedType(tag: DW_TAG_member, name: "uidhash_node", scope: !692, file: !2, baseType: !372, size: 128, align: 64, offset: 512)
!706 = !DIDerivedType(tag: DW_TAG_member, name: "uid", scope: !692, file: !2, baseType: !484, size: 32, align: 32, offset: 640)
!707 = !DIDerivedType(tag: DW_TAG_member, name: "locked_vm", scope: !692, file: !2, baseType: !533, size: 64, align: 64, offset: 704)
!708 = !DIDerivedType(tag: DW_TAG_member, name: "ratelimit", scope: !692, file: !2, baseType: !709, size: 320, align: 64, offset: 768)
!709 = !DICompositeType(tag: DW_TAG_structure_type, name: "ratelimit_state", scope: !196, file: !2, size: 320, align: 64, elements: !710, templateParams: !15, identifier: "2b7399ffb9488af6a9d59b6353d9d737")
!710 = !{!711, !712, !713, !714, !715, !716, !717}
!711 = !DIDerivedType(tag: DW_TAG_member, name: "lock", scope: !709, file: !2, baseType: !543, size: 32, align: 32)
!712 = !DIDerivedType(tag: DW_TAG_member, name: "interval", scope: !709, file: !2, baseType: !253, size: 32, align: 32, offset: 32)
!713 = !DIDerivedType(tag: DW_TAG_member, name: "burst", scope: !709, file: !2, baseType: !253, size: 32, align: 32, offset: 64)
!714 = !DIDerivedType(tag: DW_TAG_member, name: "printed", scope: !709, file: !2, baseType: !253, size: 32, align: 32, offset: 96)
!715 = !DIDerivedType(tag: DW_TAG_member, name: "missed", scope: !709, file: !2, baseType: !253, size: 32, align: 32, offset: 128)
!716 = !DIDerivedType(tag: DW_TAG_member, name: "begin", scope: !709, file: !2, baseType: !25, size: 64, align: 64, offset: 192)
!717 = !DIDerivedType(tag: DW_TAG_member, name: "flags", scope: !709, file: !2, baseType: !25, size: 64, align: 64, offset: 256)
!718 = !DIDerivedType(tag: DW_TAG_member, name: "user_ns", scope: !480, file: !2, baseType: !719, size: 64, align: 64, offset: 1024)
!719 = !DIDerivedType(tag: DW_TAG_pointer_type, name: "*mut bindings::bindings_raw::user_namespace", baseType: !720, size: 64, align: 64, dwarfAddressSpace: 0)
!720 = !DICompositeType(tag: DW_TAG_structure_type, name: "user_namespace", scope: !196, file: !2, size: 4800, align: 64, elements: !721, templateParams: !15, identifier: "16461ef4d06feb9e9f84cb1c886bc990")
!721 = !{!722, !744, !745, !746, !747, !748, !749, !750, !761, !762, !763, !764, !765, !766, !789, !954, !955, !969, !971}
!722 = !DIDerivedType(tag: DW_TAG_member, name: "uid_map", scope: !720, file: !2, baseType: !723, size: 576, align: 64)
!723 = !DICompositeType(tag: DW_TAG_structure_type, name: "uid_gid_map", scope: !196, file: !2, size: 576, align: 64, elements: !724, templateParams: !15, identifier: "708c6ea82ce7f745ca2f096aa5ff08ce")
!724 = !{!725, !726}
!725 = !DIDerivedType(tag: DW_TAG_member, name: "nr_extents", scope: !723, file: !2, baseType: !147, size: 32, align: 32)
!726 = !DIDerivedType(tag: DW_TAG_member, name: "__bindgen_anon_1", scope: !723, file: !2, baseType: !727, size: 512, align: 64, offset: 64)
!727 = !DICompositeType(tag: DW_TAG_union_type, name: "uid_gid_map__bindgen_ty_1", scope: !196, file: !2, size: 512, align: 64, elements: !728, templateParams: !15, identifier: "21fd9796b64a6a135f7bcb05966077c4")
!728 = !{!729, !736, !742}
!729 = !DIDerivedType(tag: DW_TAG_member, name: "extent", scope: !727, file: !2, baseType: !730, size: 480, align: 32)
!730 = !DICompositeType(tag: DW_TAG_array_type, baseType: !731, size: 480, align: 32, elements: !633)
!731 = !DICompositeType(tag: DW_TAG_structure_type, name: "uid_gid_extent", scope: !196, file: !2, size: 96, align: 32, elements: !732, templateParams: !15, identifier: "f5f76f05ce0c328d31383fad1c0343ea")
!732 = !{!733, !734, !735}
!733 = !DIDerivedType(tag: DW_TAG_member, name: "first", scope: !731, file: !2, baseType: !147, size: 32, align: 32)
!734 = !DIDerivedType(tag: DW_TAG_member, name: "lower_first", scope: !731, file: !2, baseType: !147, size: 32, align: 32, offset: 32)
!735 = !DIDerivedType(tag: DW_TAG_member, name: "count", scope: !731, file: !2, baseType: !147, size: 32, align: 32, offset: 64)
!736 = !DIDerivedType(tag: DW_TAG_member, name: "__bindgen_anon_1", scope: !727, file: !2, baseType: !737, size: 128, align: 64)
!737 = !DICompositeType(tag: DW_TAG_structure_type, name: "uid_gid_map__bindgen_ty_1__bindgen_ty_1", scope: !196, file: !2, size: 128, align: 64, elements: !738, templateParams: !15, identifier: "7dd836c2b648dabf55d01df90d8fdffd")
!738 = !{!739, !741}
!739 = !DIDerivedType(tag: DW_TAG_member, name: "forward", scope: !737, file: !2, baseType: !740, size: 64, align: 64)
!740 = !DIDerivedType(tag: DW_TAG_pointer_type, name: "*mut bindings::bindings_raw::uid_gid_extent", baseType: !731, size: 64, align: 64, dwarfAddressSpace: 0)
!741 = !DIDerivedType(tag: DW_TAG_member, name: "reverse", scope: !737, file: !2, baseType: !740, size: 64, align: 64, offset: 64)
!742 = !DIDerivedType(tag: DW_TAG_member, name: "_bindgen_union_align", scope: !727, file: !2, baseType: !743, size: 512, align: 64)
!743 = !DICompositeType(tag: DW_TAG_array_type, baseType: !25, size: 512, align: 64, elements: !259)
!744 = !DIDerivedType(tag: DW_TAG_member, name: "gid_map", scope: !720, file: !2, baseType: !723, size: 576, align: 64, offset: 576)
!745 = !DIDerivedType(tag: DW_TAG_member, name: "projid_map", scope: !720, file: !2, baseType: !723, size: 576, align: 64, offset: 1152)
!746 = !DIDerivedType(tag: DW_TAG_member, name: "parent", scope: !720, file: !2, baseType: !719, size: 64, align: 64, offset: 1728)
!747 = !DIDerivedType(tag: DW_TAG_member, name: "level", scope: !720, file: !2, baseType: !253, size: 32, align: 32, offset: 1792)
!748 = !DIDerivedType(tag: DW_TAG_member, name: "owner", scope: !720, file: !2, baseType: !484, size: 32, align: 32, offset: 1824)
!749 = !DIDerivedType(tag: DW_TAG_member, name: "group", scope: !720, file: !2, baseType: !488, size: 32, align: 32, offset: 1856)
!750 = !DIDerivedType(tag: DW_TAG_member, name: "ns", scope: !720, file: !2, baseType: !751, size: 192, align: 64, offset: 1920)
!751 = !DICompositeType(tag: DW_TAG_structure_type, name: "ns_common", scope: !196, file: !2, size: 192, align: 64, elements: !752, templateParams: !15, identifier: "db0b1fb0db4a652b7f7b1b06bc5c1239")
!752 = !{!753, !754, !759, !760}
!753 = !DIDerivedType(tag: DW_TAG_member, name: "stashed", scope: !751, file: !2, baseType: !533, size: 64, align: 64)
!754 = !DIDerivedType(tag: DW_TAG_member, name: "ops", scope: !751, file: !2, baseType: !755, size: 64, align: 64, offset: 64)
!755 = !DIDerivedType(tag: DW_TAG_pointer_type, name: "*const bindings::bindings_raw::proc_ns_operations", baseType: !756, size: 64, align: 64, dwarfAddressSpace: 0)
!756 = !DICompositeType(tag: DW_TAG_structure_type, name: "proc_ns_operations", scope: !196, file: !2, align: 8, elements: !757, templateParams: !15, identifier: "212819e8926beffe19960b69d566b073")
!757 = !{!758}
!758 = !DIDerivedType(tag: DW_TAG_member, name: "_unused", scope: !756, file: !2, baseType: !460, align: 8)
!759 = !DIDerivedType(tag: DW_TAG_member, name: "inum", scope: !751, file: !2, baseType: !147, size: 32, align: 32, offset: 128)
!760 = !DIDerivedType(tag: DW_TAG_member, name: "count", scope: !751, file: !2, baseType: !512, size: 32, align: 32, offset: 160)
!761 = !DIDerivedType(tag: DW_TAG_member, name: "flags", scope: !720, file: !2, baseType: !25, size: 64, align: 64, offset: 2112)
!762 = !DIDerivedType(tag: DW_TAG_member, name: "parent_could_setfcap", scope: !720, file: !2, baseType: !361, size: 8, align: 8, offset: 2176)
!763 = !DIDerivedType(tag: DW_TAG_member, name: "keyring_name_list", scope: !720, file: !2, baseType: !463, size: 128, align: 64, offset: 2240)
!764 = !DIDerivedType(tag: DW_TAG_member, name: "user_keyring_register", scope: !720, file: !2, baseType: !508, size: 64, align: 64, offset: 2368)
!765 = !DIDerivedType(tag: DW_TAG_member, name: "keyring_sem", scope: !720, file: !2, baseType: !530, size: 320, align: 64, offset: 2432)
!766 = !DIDerivedType(tag: DW_TAG_member, name: "work", scope: !720, file: !2, baseType: !767, size: 256, align: 64, offset: 2752)
!767 = !DICompositeType(tag: DW_TAG_structure_type, name: "work_struct", scope: !196, file: !2, size: 256, align: 64, elements: !768, templateParams: !15, identifier: "16f73b875cf091b73e13fca31b14385e")
!768 = !{!769, !770, !771}
!769 = !DIDerivedType(tag: DW_TAG_member, name: "data", scope: !767, file: !2, baseType: !533, size: 64, align: 64)
!770 = !DIDerivedType(tag: DW_TAG_member, name: "entry", scope: !767, file: !2, baseType: !463, size: 128, align: 64, offset: 64)
!771 = !DIDerivedType(tag: DW_TAG_member, name: "func", scope: !767, file: !2, baseType: !772, size: 64, align: 64, offset: 192)
!772 = !DICompositeType(tag: DW_TAG_structure_type, name: "Option<unsafe extern \22C\22 fn(*mut bindings::bindings_raw::work_struct)>", scope: !153, file: !2, size: 64, align: 64, elements: !773, templateParams: !15, identifier: "6445432b47c4858031351a2c9f316d71")
!773 = !{!774}
!774 = !DICompositeType(tag: DW_TAG_variant_part, scope: !772, file: !2, size: 64, align: 64, elements: !775, templateParams: !15, identifier: "3c5e46eef346526eb6f5e7a0d93bd8b5", discriminator: !788)
!775 = !{!776, !784}
!776 = !DIDerivedType(tag: DW_TAG_member, name: "None", scope: !774, file: !2, baseType: !777, size: 64, align: 64, extraData: i64 0)
!777 = !DICompositeType(tag: DW_TAG_structure_type, name: "None", scope: !772, file: !2, size: 64, align: 64, elements: !15, templateParams: !778, identifier: "2db61551e95ee07ce85905a5436b107b")
!778 = !{!779}
!779 = !DITemplateTypeParameter(name: "T", type: !780)
!780 = !DIDerivedType(tag: DW_TAG_pointer_type, name: "unsafe extern \22C\22 fn(*mut bindings::bindings_raw::work_struct)", baseType: !781, size: 64, align: 64, dwarfAddressSpace: 0)
!781 = !DISubroutineType(types: !782)
!782 = !{null, !783}
!783 = !DIDerivedType(tag: DW_TAG_pointer_type, name: "*mut bindings::bindings_raw::work_struct", baseType: !767, size: 64, align: 64, dwarfAddressSpace: 0)
!784 = !DIDerivedType(tag: DW_TAG_member, name: "Some", scope: !774, file: !2, baseType: !785, size: 64, align: 64)
!785 = !DICompositeType(tag: DW_TAG_structure_type, name: "Some", scope: !772, file: !2, size: 64, align: 64, elements: !786, templateParams: !778, identifier: "95d7a77b19523f2dc4bd1eaf49fac312")
!786 = !{!787}
!787 = !DIDerivedType(tag: DW_TAG_member, name: "__0", scope: !785, file: !2, baseType: !780, size: 64, align: 64)
!788 = !DIDerivedType(tag: DW_TAG_member, scope: !772, file: !2, baseType: !25, size: 64, align: 64, flags: DIFlagArtificial)
!789 = !DIDerivedType(tag: DW_TAG_member, name: "set", scope: !720, file: !2, baseType: !790, size: 768, align: 64, offset: 3008)
!790 = !DICompositeType(tag: DW_TAG_structure_type, name: "ctl_table_set", scope: !196, file: !2, size: 768, align: 64, elements: !791, templateParams: !15, identifier: "9ccc0e0f8f3f208e22a4cac4427fd82b")
!791 = !{!792, !810}
!792 = !DIDerivedType(tag: DW_TAG_member, name: "is_seen", scope: !790, file: !2, baseType: !793, size: 64, align: 64)
!793 = !DICompositeType(tag: DW_TAG_structure_type, name: "Option<unsafe extern \22C\22 fn(*mut bindings::bindings_raw::ctl_table_set) -> i32>", scope: !153, file: !2, size: 64, align: 64, elements: !794, templateParams: !15, identifier: "b9155725e09104e550fa7958d4e3dc36")
!794 = !{!795}
!795 = !DICompositeType(tag: DW_TAG_variant_part, scope: !793, file: !2, size: 64, align: 64, elements: !796, templateParams: !15, identifier: "f8358e879aa16c0be8d6025e30e067e", discriminator: !809)
!796 = !{!797, !805}
!797 = !DIDerivedType(tag: DW_TAG_member, name: "None", scope: !795, file: !2, baseType: !798, size: 64, align: 64, extraData: i64 0)
!798 = !DICompositeType(tag: DW_TAG_structure_type, name: "None", scope: !793, file: !2, size: 64, align: 64, elements: !15, templateParams: !799, identifier: "b0d2dbe0b3e61bd5d863560f9a142bba")
!799 = !{!800}
!800 = !DITemplateTypeParameter(name: "T", type: !801)
!801 = !DIDerivedType(tag: DW_TAG_pointer_type, name: "unsafe extern \22C\22 fn(*mut bindings::bindings_raw::ctl_table_set) -> i32", baseType: !802, size: 64, align: 64, dwarfAddressSpace: 0)
!802 = !DISubroutineType(types: !803)
!803 = !{!253, !804}
!804 = !DIDerivedType(tag: DW_TAG_pointer_type, name: "*mut bindings::bindings_raw::ctl_table_set", baseType: !790, size: 64, align: 64, dwarfAddressSpace: 0)
!805 = !DIDerivedType(tag: DW_TAG_member, name: "Some", scope: !795, file: !2, baseType: !806, size: 64, align: 64)
!806 = !DICompositeType(tag: DW_TAG_structure_type, name: "Some", scope: !793, file: !2, size: 64, align: 64, elements: !807, templateParams: !799, identifier: "8749686793bd4dfbf2f8a77b19b0e428")
!807 = !{!808}
!808 = !DIDerivedType(tag: DW_TAG_member, name: "__0", scope: !806, file: !2, baseType: !801, size: 64, align: 64)
!809 = !DIDerivedType(tag: DW_TAG_member, scope: !793, file: !2, baseType: !25, size: 64, align: 64, flags: DIFlagArtificial)
!810 = !DIDerivedType(tag: DW_TAG_member, name: "dir", scope: !790, file: !2, baseType: !811, size: 704, align: 64, offset: 64)
!811 = !DICompositeType(tag: DW_TAG_structure_type, name: "ctl_dir", scope: !196, file: !2, size: 704, align: 64, elements: !812, templateParams: !15, identifier: "7387fdbf841e071b40852c932670cc7e")
!812 = !{!813, !950}
!813 = !DIDerivedType(tag: DW_TAG_member, name: "header", scope: !811, file: !2, baseType: !814, size: 640, align: 64)
!814 = !DICompositeType(tag: DW_TAG_structure_type, name: "ctl_table_header", scope: !196, file: !2, size: 640, align: 64, elements: !815, templateParams: !15, identifier: "4aed9cea5bcbe18cde8d4a94441be985")
!815 = !{!816, !867, !877, !878, !937, !938, !940, !946}
!816 = !DIDerivedType(tag: DW_TAG_member, name: "__bindgen_anon_1", scope: !814, file: !2, baseType: !817, size: 192, align: 64)
!817 = !DICompositeType(tag: DW_TAG_union_type, name: "ctl_table_header__bindgen_ty_1", scope: !196, file: !2, size: 192, align: 64, elements: !818, templateParams: !15, identifier: "6007ac5c282a019f91192e3483be391")
!818 = !{!819, !865, !866}
!819 = !DIDerivedType(tag: DW_TAG_member, name: "__bindgen_anon_1", scope: !817, file: !2, baseType: !820, size: 192, align: 64)
!820 = !DICompositeType(tag: DW_TAG_structure_type, name: "ctl_table_header__bindgen_ty_1__bindgen_ty_1", scope: !196, file: !2, size: 192, align: 64, elements: !821, templateParams: !15, identifier: "f7a4f868151f01542ab5fc9e2f1d25a6")
!821 = !{!822, !862, !863, !864}
!822 = !DIDerivedType(tag: DW_TAG_member, name: "ctl_table", scope: !820, file: !2, baseType: !823, size: 64, align: 64)
!823 = !DIDerivedType(tag: DW_TAG_pointer_type, name: "*mut bindings::bindings_raw::ctl_table", baseType: !824, size: 64, align: 64, dwarfAddressSpace: 0)
!824 = !DICompositeType(tag: DW_TAG_structure_type, name: "ctl_table", scope: !196, file: !2, size: 512, align: 64, elements: !825, templateParams: !15, identifier: "7b2aefeb75a077be5f5fdbccf6a8b55")
!825 = !{!826, !827, !828, !829, !830, !831, !850, !860, !861}
!826 = !DIDerivedType(tag: DW_TAG_member, name: "procname", scope: !824, file: !2, baseType: !622, size: 64, align: 64)
!827 = !DIDerivedType(tag: DW_TAG_member, name: "data", scope: !824, file: !2, baseType: !387, size: 64, align: 64, offset: 64)
!828 = !DIDerivedType(tag: DW_TAG_member, name: "maxlen", scope: !824, file: !2, baseType: !253, size: 32, align: 32, offset: 128)
!829 = !DIDerivedType(tag: DW_TAG_member, name: "mode", scope: !824, file: !2, baseType: !142, size: 16, align: 16, offset: 160)
!830 = !DIDerivedType(tag: DW_TAG_member, name: "child", scope: !824, file: !2, baseType: !823, size: 64, align: 64, offset: 192)
!831 = !DIDerivedType(tag: DW_TAG_member, name: "proc_handler", scope: !824, file: !2, baseType: !832, size: 64, align: 64, offset: 256)
!832 = !DICompositeType(tag: DW_TAG_structure_type, name: "Option<unsafe extern \22C\22 fn(*mut bindings::bindings_raw::ctl_table, i32, *mut core::ffi::c_void, *mut usize, *mut i64) -> i32>", scope: !153, file: !2, size: 64, align: 64, elements: !833, templateParams: !15, identifier: "a716eed21e64d4542a6aaf062289790b")
!833 = !{!834}
!834 = !DICompositeType(tag: DW_TAG_variant_part, scope: !832, file: !2, size: 64, align: 64, elements: !835, templateParams: !15, identifier: "e206a85617ca7dd3234388ff600f06ea", discriminator: !849)
!835 = !{!836, !845}
!836 = !DIDerivedType(tag: DW_TAG_member, name: "None", scope: !834, file: !2, baseType: !837, size: 64, align: 64, extraData: i64 0)
!837 = !DICompositeType(tag: DW_TAG_structure_type, name: "None", scope: !832, file: !2, size: 64, align: 64, elements: !15, templateParams: !838, identifier: "7029b3a0d5339cf9a095454254a3f815")
!838 = !{!839}
!839 = !DITemplateTypeParameter(name: "T", type: !840)
!840 = !DIDerivedType(tag: DW_TAG_pointer_type, name: "unsafe extern \22C\22 fn(*mut bindings::bindings_raw::ctl_table, i32, *mut core::ffi::c_void, *mut usize, *mut i64) -> i32", baseType: !841, size: 64, align: 64, dwarfAddressSpace: 0)
!841 = !DISubroutineType(types: !842)
!842 = !{!253, !823, !253, !387, !843, !844}
!843 = !DIDerivedType(tag: DW_TAG_pointer_type, name: "*mut usize", baseType: !9, size: 64, align: 64, dwarfAddressSpace: 0)
!844 = !DIDerivedType(tag: DW_TAG_pointer_type, name: "*mut i64", baseType: !536, size: 64, align: 64, dwarfAddressSpace: 0)
!845 = !DIDerivedType(tag: DW_TAG_member, name: "Some", scope: !834, file: !2, baseType: !846, size: 64, align: 64)
!846 = !DICompositeType(tag: DW_TAG_structure_type, name: "Some", scope: !832, file: !2, size: 64, align: 64, elements: !847, templateParams: !838, identifier: "b1b3aea27adcfb6cd7175af18470cb18")
!847 = !{!848}
!848 = !DIDerivedType(tag: DW_TAG_member, name: "__0", scope: !846, file: !2, baseType: !840, size: 64, align: 64)
!849 = !DIDerivedType(tag: DW_TAG_member, scope: !832, file: !2, baseType: !25, size: 64, align: 64, flags: DIFlagArtificial)
!850 = !DIDerivedType(tag: DW_TAG_member, name: "poll", scope: !824, file: !2, baseType: !851, size: 64, align: 64, offset: 320)
!851 = !DIDerivedType(tag: DW_TAG_pointer_type, name: "*mut bindings::bindings_raw::ctl_table_poll", baseType: !852, size: 64, align: 64, dwarfAddressSpace: 0)
!852 = !DICompositeType(tag: DW_TAG_structure_type, name: "ctl_table_poll", scope: !196, file: !2, size: 256, align: 64, elements: !853, templateParams: !15, identifier: "1dbf4d2548d349ca3e9bb49e2ce2f1af")
!853 = !{!854, !855}
!854 = !DIDerivedType(tag: DW_TAG_member, name: "event", scope: !852, file: !2, baseType: !414, size: 32, align: 32)
!855 = !DIDerivedType(tag: DW_TAG_member, name: "wait", scope: !852, file: !2, baseType: !856, size: 192, align: 64, offset: 64)
!856 = !DICompositeType(tag: DW_TAG_structure_type, name: "wait_queue_head", scope: !196, file: !2, size: 192, align: 64, elements: !857, templateParams: !15, identifier: "2e5d2c96ee49db3a31d4fcd1236f568")
!857 = !{!858, !859}
!858 = !DIDerivedType(tag: DW_TAG_member, name: "lock", scope: !856, file: !2, baseType: !382, size: 32, align: 32)
!859 = !DIDerivedType(tag: DW_TAG_member, name: "head", scope: !856, file: !2, baseType: !463, size: 128, align: 64, offset: 64)
!860 = !DIDerivedType(tag: DW_TAG_member, name: "extra1", scope: !824, file: !2, baseType: !387, size: 64, align: 64, offset: 384)
!861 = !DIDerivedType(tag: DW_TAG_member, name: "extra2", scope: !824, file: !2, baseType: !387, size: 64, align: 64, offset: 448)
!862 = !DIDerivedType(tag: DW_TAG_member, name: "used", scope: !820, file: !2, baseType: !253, size: 32, align: 32, offset: 64)
!863 = !DIDerivedType(tag: DW_TAG_member, name: "count", scope: !820, file: !2, baseType: !253, size: 32, align: 32, offset: 96)
!864 = !DIDerivedType(tag: DW_TAG_member, name: "nreg", scope: !820, file: !2, baseType: !253, size: 32, align: 32, offset: 128)
!865 = !DIDerivedType(tag: DW_TAG_member, name: "rcu", scope: !817, file: !2, baseType: !598, size: 128, align: 64)
!866 = !DIDerivedType(tag: DW_TAG_member, name: "_bindgen_union_align", scope: !817, file: !2, baseType: !528, size: 192, align: 64)
!867 = !DIDerivedType(tag: DW_TAG_member, name: "unregistering", scope: !814, file: !2, baseType: !868, size: 64, align: 64, offset: 192)
!868 = !DIDerivedType(tag: DW_TAG_pointer_type, name: "*mut bindings::bindings_raw::completion", baseType: !869, size: 64, align: 64, dwarfAddressSpace: 0)
!869 = !DICompositeType(tag: DW_TAG_structure_type, name: "completion", scope: !196, file: !2, size: 256, align: 64, elements: !870, templateParams: !15, identifier: "e4a410ad2eda9f105a1fedcb308669f8")
!870 = !{!871, !872}
!871 = !DIDerivedType(tag: DW_TAG_member, name: "done", scope: !869, file: !2, baseType: !147, size: 32, align: 32)
!872 = !DIDerivedType(tag: DW_TAG_member, name: "wait", scope: !869, file: !2, baseType: !873, size: 192, align: 64, offset: 64)
!873 = !DICompositeType(tag: DW_TAG_structure_type, name: "swait_queue_head", scope: !196, file: !2, size: 192, align: 64, elements: !874, templateParams: !15, identifier: "77f09b208150f84ba3347246ae34e79f")
!874 = !{!875, !876}
!875 = !DIDerivedType(tag: DW_TAG_member, name: "lock", scope: !873, file: !2, baseType: !543, size: 32, align: 32)
!876 = !DIDerivedType(tag: DW_TAG_member, name: "task_list", scope: !873, file: !2, baseType: !463, size: 128, align: 64, offset: 64)
!877 = !DIDerivedType(tag: DW_TAG_member, name: "ctl_table_arg", scope: !814, file: !2, baseType: !823, size: 64, align: 64, offset: 256)
!878 = !DIDerivedType(tag: DW_TAG_member, name: "root", scope: !814, file: !2, baseType: !879, size: 64, align: 64, offset: 320)
!879 = !DIDerivedType(tag: DW_TAG_pointer_type, name: "*mut bindings::bindings_raw::ctl_table_root", baseType: !880, size: 64, align: 64, dwarfAddressSpace: 0)
!880 = !DICompositeType(tag: DW_TAG_structure_type, name: "ctl_table_root", scope: !196, file: !2, size: 960, align: 64, elements: !881, templateParams: !15, identifier: "6450376aeb320307130e9eb3ac38a135")
!881 = !{!882, !883, !900, !920}
!882 = !DIDerivedType(tag: DW_TAG_member, name: "default_set", scope: !880, file: !2, baseType: !790, size: 768, align: 64)
!883 = !DIDerivedType(tag: DW_TAG_member, name: "lookup", scope: !880, file: !2, baseType: !884, size: 64, align: 64, offset: 768)
!884 = !DICompositeType(tag: DW_TAG_structure_type, name: "Option<unsafe extern \22C\22 fn(*mut bindings::bindings_raw::ctl_table_root) -> *mut bindings::bindings_raw::ctl_table_set>", scope: !153, file: !2, size: 64, align: 64, elements: !885, templateParams: !15, identifier: "83b35674cd93c3971acdea1836069d9d")
!885 = !{!886}
!886 = !DICompositeType(tag: DW_TAG_variant_part, scope: !884, file: !2, size: 64, align: 64, elements: !887, templateParams: !15, identifier: "9e42185515a5e1add555179cf2b5ce5e", discriminator: !899)
!887 = !{!888, !895}
!888 = !DIDerivedType(tag: DW_TAG_member, name: "None", scope: !886, file: !2, baseType: !889, size: 64, align: 64, extraData: i64 0)
!889 = !DICompositeType(tag: DW_TAG_structure_type, name: "None", scope: !884, file: !2, size: 64, align: 64, elements: !15, templateParams: !890, identifier: "23c83825f1cd074b9deccb3c339659bc")
!890 = !{!891}
!891 = !DITemplateTypeParameter(name: "T", type: !892)
!892 = !DIDerivedType(tag: DW_TAG_pointer_type, name: "unsafe extern \22C\22 fn(*mut bindings::bindings_raw::ctl_table_root) -> *mut bindings::bindings_raw::ctl_table_set", baseType: !893, size: 64, align: 64, dwarfAddressSpace: 0)
!893 = !DISubroutineType(types: !894)
!894 = !{!804, !879}
!895 = !DIDerivedType(tag: DW_TAG_member, name: "Some", scope: !886, file: !2, baseType: !896, size: 64, align: 64)
!896 = !DICompositeType(tag: DW_TAG_structure_type, name: "Some", scope: !884, file: !2, size: 64, align: 64, elements: !897, templateParams: !890, identifier: "bf28b5c2de46608444fa42d9d4044de0")
!897 = !{!898}
!898 = !DIDerivedType(tag: DW_TAG_member, name: "__0", scope: !896, file: !2, baseType: !892, size: 64, align: 64)
!899 = !DIDerivedType(tag: DW_TAG_member, scope: !884, file: !2, baseType: !25, size: 64, align: 64, flags: DIFlagArtificial)
!900 = !DIDerivedType(tag: DW_TAG_member, name: "set_ownership", scope: !880, file: !2, baseType: !901, size: 64, align: 64, offset: 832)
!901 = !DICompositeType(tag: DW_TAG_structure_type, name: "Option<unsafe extern \22C\22 fn(*mut bindings::bindings_raw::ctl_table_header, *mut bindings::bindings_raw::ctl_table, *mut bindings::bindings_raw::kuid_t, *mut bindings::bindings_raw::kgid_t)>", scope: !153, file: !2, size: 64, align: 64, elements: !902, templateParams: !15, identifier: "358cc78737df11f114e783c28d5e295c")
!902 = !{!903}
!903 = !DICompositeType(tag: DW_TAG_variant_part, scope: !901, file: !2, size: 64, align: 64, elements: !904, templateParams: !15, identifier: "7055f33babd8467f3845f7bfa5e3299b", discriminator: !919)
!904 = !{!905, !915}
!905 = !DIDerivedType(tag: DW_TAG_member, name: "None", scope: !903, file: !2, baseType: !906, size: 64, align: 64, extraData: i64 0)
!906 = !DICompositeType(tag: DW_TAG_structure_type, name: "None", scope: !901, file: !2, size: 64, align: 64, elements: !15, templateParams: !907, identifier: "b41cab25d5101d89c7093b3660e3b267")
!907 = !{!908}
!908 = !DITemplateTypeParameter(name: "T", type: !909)
!909 = !DIDerivedType(tag: DW_TAG_pointer_type, name: "unsafe extern \22C\22 fn(*mut bindings::bindings_raw::ctl_table_header, *mut bindings::bindings_raw::ctl_table, *mut bindings::bindings_raw::kuid_t, *mut bindings::bindings_raw::kgid_t)", baseType: !910, size: 64, align: 64, dwarfAddressSpace: 0)
!910 = !DISubroutineType(types: !911)
!911 = !{null, !912, !823, !913, !914}
!912 = !DIDerivedType(tag: DW_TAG_pointer_type, name: "*mut bindings::bindings_raw::ctl_table_header", baseType: !814, size: 64, align: 64, dwarfAddressSpace: 0)
!913 = !DIDerivedType(tag: DW_TAG_pointer_type, name: "*mut bindings::bindings_raw::kuid_t", baseType: !484, size: 64, align: 64, dwarfAddressSpace: 0)
!914 = !DIDerivedType(tag: DW_TAG_pointer_type, name: "*mut bindings::bindings_raw::kgid_t", baseType: !488, size: 64, align: 64, dwarfAddressSpace: 0)
!915 = !DIDerivedType(tag: DW_TAG_member, name: "Some", scope: !903, file: !2, baseType: !916, size: 64, align: 64)
!916 = !DICompositeType(tag: DW_TAG_structure_type, name: "Some", scope: !901, file: !2, size: 64, align: 64, elements: !917, templateParams: !907, identifier: "ab21d4b5506cc2621bdd554529d11aa1")
!917 = !{!918}
!918 = !DIDerivedType(tag: DW_TAG_member, name: "__0", scope: !916, file: !2, baseType: !909, size: 64, align: 64)
!919 = !DIDerivedType(tag: DW_TAG_member, scope: !901, file: !2, baseType: !25, size: 64, align: 64, flags: DIFlagArtificial)
!920 = !DIDerivedType(tag: DW_TAG_member, name: "permissions", scope: !880, file: !2, baseType: !921, size: 64, align: 64, offset: 896)
!921 = !DICompositeType(tag: DW_TAG_structure_type, name: "Option<unsafe extern \22C\22 fn(*mut bindings::bindings_raw::ctl_table_header, *mut bindings::bindings_raw::ctl_table) -> i32>", scope: !153, file: !2, size: 64, align: 64, elements: !922, templateParams: !15, identifier: "88db2e7fd9db707b3902c096d056b121")
!922 = !{!923}
!923 = !DICompositeType(tag: DW_TAG_variant_part, scope: !921, file: !2, size: 64, align: 64, elements: !924, templateParams: !15, identifier: "11187b7de3a5d5e6e7135950314ab204", discriminator: !936)
!924 = !{!925, !932}
!925 = !DIDerivedType(tag: DW_TAG_member, name: "None", scope: !923, file: !2, baseType: !926, size: 64, align: 64, extraData: i64 0)
!926 = !DICompositeType(tag: DW_TAG_structure_type, name: "None", scope: !921, file: !2, size: 64, align: 64, elements: !15, templateParams: !927, identifier: "8a48f87f92966f58fb9bf1e9e7c7f94")
!927 = !{!928}
!928 = !DITemplateTypeParameter(name: "T", type: !929)
!929 = !DIDerivedType(tag: DW_TAG_pointer_type, name: "unsafe extern \22C\22 fn(*mut bindings::bindings_raw::ctl_table_header, *mut bindings::bindings_raw::ctl_table) -> i32", baseType: !930, size: 64, align: 64, dwarfAddressSpace: 0)
!930 = !DISubroutineType(types: !931)
!931 = !{!253, !912, !823}
!932 = !DIDerivedType(tag: DW_TAG_member, name: "Some", scope: !923, file: !2, baseType: !933, size: 64, align: 64)
!933 = !DICompositeType(tag: DW_TAG_structure_type, name: "Some", scope: !921, file: !2, size: 64, align: 64, elements: !934, templateParams: !927, identifier: "5d86f74c835b5e6f995d792e0de1b2c2")
!934 = !{!935}
!935 = !DIDerivedType(tag: DW_TAG_member, name: "__0", scope: !933, file: !2, baseType: !929, size: 64, align: 64)
!936 = !DIDerivedType(tag: DW_TAG_member, scope: !921, file: !2, baseType: !25, size: 64, align: 64, flags: DIFlagArtificial)
!937 = !DIDerivedType(tag: DW_TAG_member, name: "set", scope: !814, file: !2, baseType: !804, size: 64, align: 64, offset: 384)
!938 = !DIDerivedType(tag: DW_TAG_member, name: "parent", scope: !814, file: !2, baseType: !939, size: 64, align: 64, offset: 448)
!939 = !DIDerivedType(tag: DW_TAG_pointer_type, name: "*mut bindings::bindings_raw::ctl_dir", baseType: !811, size: 64, align: 64, dwarfAddressSpace: 0)
!940 = !DIDerivedType(tag: DW_TAG_member, name: "node", scope: !814, file: !2, baseType: !941, size: 64, align: 64, offset: 512)
!941 = !DIDerivedType(tag: DW_TAG_pointer_type, name: "*mut bindings::bindings_raw::ctl_node", baseType: !942, size: 64, align: 64, dwarfAddressSpace: 0)
!942 = !DICompositeType(tag: DW_TAG_structure_type, name: "ctl_node", scope: !196, file: !2, size: 256, align: 64, elements: !943, templateParams: !15, identifier: "b37fb64635f51c9bc177fa77551b5d1a")
!943 = !{!944, !945}
!944 = !DIDerivedType(tag: DW_TAG_member, name: "node", scope: !942, file: !2, baseType: !521, size: 192, align: 64)
!945 = !DIDerivedType(tag: DW_TAG_member, name: "header", scope: !942, file: !2, baseType: !912, size: 64, align: 64, offset: 192)
!946 = !DIDerivedType(tag: DW_TAG_member, name: "inodes", scope: !814, file: !2, baseType: !947, size: 64, align: 64, offset: 576)
!947 = !DICompositeType(tag: DW_TAG_structure_type, name: "hlist_head", scope: !196, file: !2, size: 64, align: 64, elements: !948, templateParams: !15, identifier: "2d289c8dbc6bad4bc4e0c29bd04e0a39")
!948 = !{!949}
!949 = !DIDerivedType(tag: DW_TAG_member, name: "first", scope: !947, file: !2, baseType: !375, size: 64, align: 64)
!950 = !DIDerivedType(tag: DW_TAG_member, name: "root", scope: !811, file: !2, baseType: !951, size: 64, align: 64, offset: 640)
!951 = !DICompositeType(tag: DW_TAG_structure_type, name: "rb_root", scope: !196, file: !2, size: 64, align: 64, elements: !952, templateParams: !15, identifier: "64fcd8ff7993339ea2c68fc26a904937")
!952 = !{!953}
!953 = !DIDerivedType(tag: DW_TAG_member, name: "rb_node", scope: !951, file: !2, baseType: !525, size: 64, align: 64)
!954 = !DIDerivedType(tag: DW_TAG_member, name: "sysctls", scope: !720, file: !2, baseType: !912, size: 64, align: 64, offset: 3776)
!955 = !DIDerivedType(tag: DW_TAG_member, name: "ucounts", scope: !720, file: !2, baseType: !956, size: 64, align: 64, offset: 3840)
!956 = !DIDerivedType(tag: DW_TAG_pointer_type, name: "*mut bindings::bindings_raw::ucounts", baseType: !957, size: 64, align: 64, dwarfAddressSpace: 0)
!957 = !DICompositeType(tag: DW_TAG_structure_type, name: "ucounts", scope: !196, file: !2, size: 1152, align: 64, elements: !958, templateParams: !15, identifier: "1518ba1e27287d28be53a84be3023305")
!958 = !{!959, !960, !961, !962, !963, !967}
!959 = !DIDerivedType(tag: DW_TAG_member, name: "node", scope: !957, file: !2, baseType: !372, size: 128, align: 64)
!960 = !DIDerivedType(tag: DW_TAG_member, name: "ns", scope: !957, file: !2, baseType: !719, size: 64, align: 64, offset: 128)
!961 = !DIDerivedType(tag: DW_TAG_member, name: "uid", scope: !957, file: !2, baseType: !484, size: 32, align: 32, offset: 192)
!962 = !DIDerivedType(tag: DW_TAG_member, name: "count", scope: !957, file: !2, baseType: !414, size: 32, align: 32, offset: 224)
!963 = !DIDerivedType(tag: DW_TAG_member, name: "ucount", scope: !957, file: !2, baseType: !964, size: 640, align: 64, offset: 256)
!964 = !DICompositeType(tag: DW_TAG_array_type, baseType: !533, size: 640, align: 64, elements: !965)
!965 = !{!966}
!966 = !DISubrange(count: 10, lowerBound: 0)
!967 = !DIDerivedType(tag: DW_TAG_member, name: "rlimit", scope: !957, file: !2, baseType: !968, size: 256, align: 64, offset: 896)
!968 = !DICompositeType(tag: DW_TAG_array_type, baseType: !533, size: 256, align: 64, elements: !644)
!969 = !DIDerivedType(tag: DW_TAG_member, name: "ucount_max", scope: !720, file: !2, baseType: !970, size: 640, align: 64, offset: 3904)
!970 = !DICompositeType(tag: DW_TAG_array_type, baseType: !536, size: 640, align: 64, elements: !965)
!971 = !DIDerivedType(tag: DW_TAG_member, name: "rlimit_max", scope: !720, file: !2, baseType: !972, size: 256, align: 64, offset: 4544)
!972 = !DICompositeType(tag: DW_TAG_array_type, baseType: !536, size: 256, align: 64, elements: !644)
!973 = !DIDerivedType(tag: DW_TAG_member, name: "ucounts", scope: !480, file: !2, baseType: !956, size: 64, align: 64, offset: 1088)
!974 = !DIDerivedType(tag: DW_TAG_member, name: "group_info", scope: !480, file: !2, baseType: !975, size: 64, align: 64, offset: 1152)
!975 = !DIDerivedType(tag: DW_TAG_pointer_type, name: "*mut bindings::bindings_raw::group_info", baseType: !976, size: 64, align: 64, dwarfAddressSpace: 0)
!976 = !DICompositeType(tag: DW_TAG_structure_type, name: "group_info", scope: !196, file: !2, size: 64, align: 32, elements: !977, templateParams: !15, identifier: "3b3c5f14cfc4c64bd2587e9eae9a8d71")
!977 = !{!978, !979, !980}
!978 = !DIDerivedType(tag: DW_TAG_member, name: "usage", scope: !976, file: !2, baseType: !414, size: 32, align: 32)
!979 = !DIDerivedType(tag: DW_TAG_member, name: "ngroups", scope: !976, file: !2, baseType: !253, size: 32, align: 32, offset: 32)
!980 = !DIDerivedType(tag: DW_TAG_member, name: "gid", scope: !976, file: !2, baseType: !981, align: 32, offset: 64)
!981 = !DICompositeType(tag: DW_TAG_structure_type, name: "__IncompleteArrayField<bindings::bindings_raw::kgid_t>", scope: !196, file: !2, align: 32, elements: !982, templateParams: !985, identifier: "8b1785930652a197e4fb565ff9f27428")
!982 = !{!983, !987}
!983 = !DIDerivedType(tag: DW_TAG_member, name: "__0", scope: !981, file: !2, baseType: !984, align: 8)
!984 = !DICompositeType(tag: DW_TAG_structure_type, name: "PhantomData<bindings::bindings_raw::kgid_t>", scope: !279, file: !2, align: 8, elements: !15, templateParams: !985, identifier: "d1756c466fbe11babd53c75dfb3e65d3")
!985 = !{!986}
!986 = !DITemplateTypeParameter(name: "T", type: !488)
!987 = !DIDerivedType(tag: DW_TAG_member, name: "__1", scope: !981, file: !2, baseType: !988, align: 32)
!988 = !DICompositeType(tag: DW_TAG_array_type, baseType: !488, align: 32, elements: !284)
!989 = !DIDerivedType(tag: DW_TAG_member, name: "__bindgen_anon_1", scope: !480, file: !2, baseType: !990, size: 128, align: 64, offset: 1216)
!990 = !DICompositeType(tag: DW_TAG_union_type, name: "cred__bindgen_ty_1", scope: !196, file: !2, size: 128, align: 64, elements: !991, templateParams: !15, identifier: "75599c5e2d941a552d415ea35fb96f66")
!991 = !{!992, !993, !994}
!992 = !DIDerivedType(tag: DW_TAG_member, name: "non_rcu", scope: !990, file: !2, baseType: !253, size: 32, align: 32)
!993 = !DIDerivedType(tag: DW_TAG_member, name: "rcu", scope: !990, file: !2, baseType: !598, size: 128, align: 64)
!994 = !DIDerivedType(tag: DW_TAG_member, name: "_bindgen_union_align", scope: !990, file: !2, baseType: !995, size: 128, align: 64)
!995 = !DICompositeType(tag: DW_TAG_array_type, baseType: !25, size: 128, align: 64, elements: !996)
!996 = !{!997}
!997 = !DISubrange(count: 2, lowerBound: 0)
!998 = !DIDerivedType(tag: DW_TAG_member, name: "credits_granted", scope: !337, file: !2, baseType: !147, size: 32, align: 32, offset: 704)
!999 = !DIDerivedType(tag: DW_TAG_member, name: "resp_hdr_sz", scope: !337, file: !2, baseType: !147, size: 32, align: 32, offset: 736)
!1000 = !DIDerivedType(tag: DW_TAG_member, name: "response_sz", scope: !337, file: !2, baseType: !147, size: 32, align: 32, offset: 768)
!1001 = !DIDerivedType(tag: DW_TAG_member, name: "aux_payload_sz", scope: !337, file: !2, baseType: !147, size: 32, align: 32, offset: 800)
!1002 = !DIDerivedType(tag: DW_TAG_member, name: "tr_buf", scope: !337, file: !2, baseType: !387, size: 64, align: 64, offset: 832)
!1003 = !DIDerivedType(tag: DW_TAG_member, name: "state", scope: !337, file: !2, baseType: !94, size: 8, align: 8, offset: 896)
!1004 = !DIDerivedType(tag: DW_TAG_member, name: "_bitfield_1", scope: !337, file: !2, baseType: !1005, size: 8, align: 8, offset: 904)
!1005 = !DICompositeType(tag: DW_TAG_structure_type, name: "__BindgenBitfieldUnit<[u8; 1], u8>", scope: !196, file: !2, size: 8, align: 8, elements: !1006, templateParams: !1012, identifier: "94723816f3c72124383d66980e38639")
!1006 = !{!1007, !1011}
!1007 = !DIDerivedType(tag: DW_TAG_member, name: "storage", scope: !1005, file: !2, baseType: !1008, size: 8, align: 8)
!1008 = !DICompositeType(tag: DW_TAG_array_type, baseType: !94, size: 8, align: 8, elements: !1009)
!1009 = !{!1010}
!1010 = !DISubrange(count: 1, lowerBound: 0)
!1011 = !DIDerivedType(tag: DW_TAG_member, name: "align", scope: !1005, file: !2, baseType: !460, align: 8, offset: 8)
!1012 = !{!1013, !1014}
!1013 = !DITemplateTypeParameter(name: "Storage", type: !1008)
!1014 = !DITemplateTypeParameter(name: "Align", type: !94)
!1015 = !DIDerivedType(tag: DW_TAG_member, name: "remote_key", scope: !337, file: !2, baseType: !147, size: 32, align: 32, offset: 928)
!1016 = !DIDerivedType(tag: DW_TAG_member, name: "async_id", scope: !337, file: !2, baseType: !253, size: 32, align: 32, offset: 960)
!1017 = !DIDerivedType(tag: DW_TAG_member, name: "cancel_argv", scope: !337, file: !2, baseType: !1018, size: 64, align: 64, offset: 1024)
!1018 = !DIDerivedType(tag: DW_TAG_pointer_type, name: "*mut *mut core::ffi::c_void", baseType: !387, size: 64, align: 64, dwarfAddressSpace: 0)
!1019 = !DIDerivedType(tag: DW_TAG_member, name: "cancel_fn", scope: !337, file: !2, baseType: !1020, size: 64, align: 64, offset: 1088)
!1020 = !DICompositeType(tag: DW_TAG_structure_type, name: "Option<unsafe extern \22C\22 fn(*mut *mut core::ffi::c_void)>", scope: !153, file: !2, size: 64, align: 64, elements: !1021, templateParams: !15, identifier: "5cdf8d34091995f8ae4a46506ae1a9f7")
!1021 = !{!1022}
!1022 = !DICompositeType(tag: DW_TAG_variant_part, scope: !1020, file: !2, size: 64, align: 64, elements: !1023, templateParams: !15, identifier: "1688a5331e897c1a78df6679403fb16", discriminator: !1035)
!1023 = !{!1024, !1031}
!1024 = !DIDerivedType(tag: DW_TAG_member, name: "None", scope: !1022, file: !2, baseType: !1025, size: 64, align: 64, extraData: i64 0)
!1025 = !DICompositeType(tag: DW_TAG_structure_type, name: "None", scope: !1020, file: !2, size: 64, align: 64, elements: !15, templateParams: !1026, identifier: "8a3061f326c08ff16f6a760c3403e585")
!1026 = !{!1027}
!1027 = !DITemplateTypeParameter(name: "T", type: !1028)
!1028 = !DIDerivedType(tag: DW_TAG_pointer_type, name: "unsafe extern \22C\22 fn(*mut *mut core::ffi::c_void)", baseType: !1029, size: 64, align: 64, dwarfAddressSpace: 0)
!1029 = !DISubroutineType(types: !1030)
!1030 = !{null, !1018}
!1031 = !DIDerivedType(tag: DW_TAG_member, name: "Some", scope: !1022, file: !2, baseType: !1032, size: 64, align: 64)
!1032 = !DICompositeType(tag: DW_TAG_structure_type, name: "Some", scope: !1020, file: !2, size: 64, align: 64, elements: !1033, templateParams: !1026, identifier: "4cb4550fe2f9998da2e10106d28741b8")
!1033 = !{!1034}
!1034 = !DIDerivedType(tag: DW_TAG_member, name: "__0", scope: !1032, file: !2, baseType: !1028, size: 64, align: 64)
!1035 = !DIDerivedType(tag: DW_TAG_member, scope: !1020, file: !2, baseType: !25, size: 64, align: 64, flags: DIFlagArtificial)
!1036 = !DIDerivedType(tag: DW_TAG_member, name: "work", scope: !337, file: !2, baseType: !767, size: 256, align: 64, offset: 1152)
!1037 = !DIDerivedType(tag: DW_TAG_member, name: "request_entry", scope: !337, file: !2, baseType: !463, size: 128, align: 64, offset: 1408)
!1038 = !DIDerivedType(tag: DW_TAG_member, name: "async_request_entry", scope: !337, file: !2, baseType: !463, size: 128, align: 64, offset: 1536)
!1039 = !DIDerivedType(tag: DW_TAG_member, name: "fp_entry", scope: !337, file: !2, baseType: !463, size: 128, align: 64, offset: 1664)
!1040 = !DIDerivedType(tag: DW_TAG_member, name: "interim_entry", scope: !337, file: !2, baseType: !463, size: 128, align: 64, offset: 1792)
!1041 = !DIDerivedType(tag: DW_TAG_member, name: "Some", scope: !327, file: !2, baseType: !1042, size: 64, align: 64)
!1042 = !DICompositeType(tag: DW_TAG_structure_type, name: "Some", scope: !325, file: !2, size: 64, align: 64, elements: !1043, templateParams: !331, identifier: "b8d0e776cc160fafce8a73329c7ff958")
!1043 = !{!1044}
!1044 = !DIDerivedType(tag: DW_TAG_member, name: "__0", scope: !1042, file: !2, baseType: !333, size: 64, align: 64)
!1045 = !DIDerivedType(tag: DW_TAG_member, scope: !325, file: !2, baseType: !25, size: 64, align: 64, flags: DIFlagArtificial)
!1046 = !DIDerivedType(tag: DW_TAG_member, name: "init_rsp_hdr", scope: !322, file: !2, baseType: !1047, size: 64, align: 64, offset: 64)
!1047 = !DICompositeType(tag: DW_TAG_structure_type, name: "Option<unsafe extern \22C\22 fn(*mut bindings::bindings_raw::ksmbd_work) -> i32>", scope: !153, file: !2, size: 64, align: 64, elements: !1048, templateParams: !15, identifier: "7dfdf15155457c4ab393779495690dad")
!1048 = !{!1049}
!1049 = !DICompositeType(tag: DW_TAG_variant_part, scope: !1047, file: !2, size: 64, align: 64, elements: !1050, templateParams: !15, identifier: "319268a0897d81827fa973e0b89914", discriminator: !1062)
!1050 = !{!1051, !1058}
!1051 = !DIDerivedType(tag: DW_TAG_member, name: "None", scope: !1049, file: !2, baseType: !1052, size: 64, align: 64, extraData: i64 0)
!1052 = !DICompositeType(tag: DW_TAG_structure_type, name: "None", scope: !1047, file: !2, size: 64, align: 64, elements: !15, templateParams: !1053, identifier: "e12705952b35423f5538b802c3860e2e")
!1053 = !{!1054}
!1054 = !DITemplateTypeParameter(name: "T", type: !1055)
!1055 = !DIDerivedType(tag: DW_TAG_pointer_type, name: "unsafe extern \22C\22 fn(*mut bindings::bindings_raw::ksmbd_work) -> i32", baseType: !1056, size: 64, align: 64, dwarfAddressSpace: 0)
!1056 = !DISubroutineType(types: !1057)
!1057 = !{!253, !336}
!1058 = !DIDerivedType(tag: DW_TAG_member, name: "Some", scope: !1049, file: !2, baseType: !1059, size: 64, align: 64)
!1059 = !DICompositeType(tag: DW_TAG_structure_type, name: "Some", scope: !1047, file: !2, size: 64, align: 64, elements: !1060, templateParams: !1053, identifier: "293b7cf9b55fc4edb5c3ee223f4fdc03")
!1060 = !{!1061}
!1061 = !DIDerivedType(tag: DW_TAG_member, name: "__0", scope: !1059, file: !2, baseType: !1055, size: 64, align: 64)
!1062 = !DIDerivedType(tag: DW_TAG_member, scope: !1047, file: !2, baseType: !25, size: 64, align: 64, flags: DIFlagArtificial)
!1063 = !DIDerivedType(tag: DW_TAG_member, name: "set_rsp_status", scope: !322, file: !2, baseType: !1064, size: 64, align: 64, offset: 128)
!1064 = !DICompositeType(tag: DW_TAG_structure_type, name: "Option<unsafe extern \22C\22 fn(*mut bindings::bindings_raw::ksmbd_work, u32)>", scope: !153, file: !2, size: 64, align: 64, elements: !1065, templateParams: !15, identifier: "7f108dd7fbf8ff927756a9b22e2154ab")
!1065 = !{!1066}
!1066 = !DICompositeType(tag: DW_TAG_variant_part, scope: !1064, file: !2, size: 64, align: 64, elements: !1067, templateParams: !15, identifier: "da5e2a18bc1d466196023d74e27e9f9", discriminator: !1079)
!1067 = !{!1068, !1075}
!1068 = !DIDerivedType(tag: DW_TAG_member, name: "None", scope: !1066, file: !2, baseType: !1069, size: 64, align: 64, extraData: i64 0)
!1069 = !DICompositeType(tag: DW_TAG_structure_type, name: "None", scope: !1064, file: !2, size: 64, align: 64, elements: !15, templateParams: !1070, identifier: "1a66631c62402df934742018806eb07b")
!1070 = !{!1071}
!1071 = !DITemplateTypeParameter(name: "T", type: !1072)
!1072 = !DIDerivedType(tag: DW_TAG_pointer_type, name: "unsafe extern \22C\22 fn(*mut bindings::bindings_raw::ksmbd_work, u32)", baseType: !1073, size: 64, align: 64, dwarfAddressSpace: 0)
!1073 = !DISubroutineType(types: !1074)
!1074 = !{null, !336, !147}
!1075 = !DIDerivedType(tag: DW_TAG_member, name: "Some", scope: !1066, file: !2, baseType: !1076, size: 64, align: 64)
!1076 = !DICompositeType(tag: DW_TAG_structure_type, name: "Some", scope: !1064, file: !2, size: 64, align: 64, elements: !1077, templateParams: !1070, identifier: "6ce463a1efb4a58f219634e11e3d3be9")
!1077 = !{!1078}
!1078 = !DIDerivedType(tag: DW_TAG_member, name: "__0", scope: !1076, file: !2, baseType: !1072, size: 64, align: 64)
!1079 = !DIDerivedType(tag: DW_TAG_member, scope: !1064, file: !2, baseType: !25, size: 64, align: 64, flags: DIFlagArtificial)
!1080 = !DIDerivedType(tag: DW_TAG_member, name: "allocate_rsp_buf", scope: !322, file: !2, baseType: !1047, size: 64, align: 64, offset: 192)
!1081 = !DIDerivedType(tag: DW_TAG_member, name: "set_rsp_credits", scope: !322, file: !2, baseType: !1047, size: 64, align: 64, offset: 256)
!1082 = !DIDerivedType(tag: DW_TAG_member, name: "check_user_session", scope: !322, file: !2, baseType: !1047, size: 64, align: 64, offset: 320)
!1083 = !DIDerivedType(tag: DW_TAG_member, name: "get_ksmbd_tcon", scope: !322, file: !2, baseType: !1047, size: 64, align: 64, offset: 384)
!1084 = !DIDerivedType(tag: DW_TAG_member, name: "is_sign_req", scope: !322, file: !2, baseType: !1085, size: 64, align: 64, offset: 448)
!1085 = !DICompositeType(tag: DW_TAG_structure_type, name: "Option<unsafe extern \22C\22 fn(*mut bindings::bindings_raw::ksmbd_work, u32) -> bool>", scope: !153, file: !2, size: 64, align: 64, elements: !1086, templateParams: !15, identifier: "e4e4acee7578ab862ef0ba3cd53ed4d4")
!1086 = !{!1087}
!1087 = !DICompositeType(tag: DW_TAG_variant_part, scope: !1085, file: !2, size: 64, align: 64, elements: !1088, templateParams: !15, identifier: "87ac48e920510c04a4bb33270267e7bf", discriminator: !1100)
!1088 = !{!1089, !1096}
!1089 = !DIDerivedType(tag: DW_TAG_member, name: "None", scope: !1087, file: !2, baseType: !1090, size: 64, align: 64, extraData: i64 0)
!1090 = !DICompositeType(tag: DW_TAG_structure_type, name: "None", scope: !1085, file: !2, size: 64, align: 64, elements: !15, templateParams: !1091, identifier: "41431c6d5bbfa2dcd7251e18795f6d47")
!1091 = !{!1092}
!1092 = !DITemplateTypeParameter(name: "T", type: !1093)
!1093 = !DIDerivedType(tag: DW_TAG_pointer_type, name: "unsafe extern \22C\22 fn(*mut bindings::bindings_raw::ksmbd_work, u32) -> bool", baseType: !1094, size: 64, align: 64, dwarfAddressSpace: 0)
!1094 = !DISubroutineType(types: !1095)
!1095 = !{!361, !336, !147}
!1096 = !DIDerivedType(tag: DW_TAG_member, name: "Some", scope: !1087, file: !2, baseType: !1097, size: 64, align: 64)
!1097 = !DICompositeType(tag: DW_TAG_structure_type, name: "Some", scope: !1085, file: !2, size: 64, align: 64, elements: !1098, templateParams: !1091, identifier: "ff66c3af5f8f06db42365f9e158995")
!1098 = !{!1099}
!1099 = !DIDerivedType(tag: DW_TAG_member, name: "__0", scope: !1097, file: !2, baseType: !1093, size: 64, align: 64)
!1100 = !DIDerivedType(tag: DW_TAG_member, scope: !1085, file: !2, baseType: !25, size: 64, align: 64, flags: DIFlagArtificial)
!1101 = !DIDerivedType(tag: DW_TAG_member, name: "check_sign_req", scope: !322, file: !2, baseType: !1047, size: 64, align: 64, offset: 512)
!1102 = !DIDerivedType(tag: DW_TAG_member, name: "set_sign_rsp", scope: !322, file: !2, baseType: !1103, size: 64, align: 64, offset: 576)
!1103 = !DICompositeType(tag: DW_TAG_structure_type, name: "Option<unsafe extern \22C\22 fn(*mut bindings::bindings_raw::ksmbd_work)>", scope: !153, file: !2, size: 64, align: 64, elements: !1104, templateParams: !15, identifier: "f3f567624683484198819afa34c56ad4")
!1104 = !{!1105}
!1105 = !DICompositeType(tag: DW_TAG_variant_part, scope: !1103, file: !2, size: 64, align: 64, elements: !1106, templateParams: !15, identifier: "8c83ccacde942ba6cc5736c00aaea02", discriminator: !1118)
!1106 = !{!1107, !1114}
!1107 = !DIDerivedType(tag: DW_TAG_member, name: "None", scope: !1105, file: !2, baseType: !1108, size: 64, align: 64, extraData: i64 0)
!1108 = !DICompositeType(tag: DW_TAG_structure_type, name: "None", scope: !1103, file: !2, size: 64, align: 64, elements: !15, templateParams: !1109, identifier: "929920844e92e140984bbff4c46c2e17")
!1109 = !{!1110}
!1110 = !DITemplateTypeParameter(name: "T", type: !1111)
!1111 = !DIDerivedType(tag: DW_TAG_pointer_type, name: "unsafe extern \22C\22 fn(*mut bindings::bindings_raw::ksmbd_work)", baseType: !1112, size: 64, align: 64, dwarfAddressSpace: 0)
!1112 = !DISubroutineType(types: !1113)
!1113 = !{null, !336}
!1114 = !DIDerivedType(tag: DW_TAG_member, name: "Some", scope: !1105, file: !2, baseType: !1115, size: 64, align: 64)
!1115 = !DICompositeType(tag: DW_TAG_structure_type, name: "Some", scope: !1103, file: !2, size: 64, align: 64, elements: !1116, templateParams: !1109, identifier: "dd0a9c280728b534c00051a320ed0854")
!1116 = !{!1117}
!1117 = !DIDerivedType(tag: DW_TAG_member, name: "__0", scope: !1115, file: !2, baseType: !1111, size: 64, align: 64)
!1118 = !DIDerivedType(tag: DW_TAG_member, scope: !1103, file: !2, baseType: !25, size: 64, align: 64, flags: DIFlagArtificial)
!1119 = !DIDerivedType(tag: DW_TAG_member, name: "generate_signingkey", scope: !322, file: !2, baseType: !1120, size: 64, align: 64, offset: 640)
!1120 = !DICompositeType(tag: DW_TAG_structure_type, name: "Option<unsafe extern \22C\22 fn(*mut bindings::bindings_raw::ksmbd_session, *mut bindings::bindings_raw::ksmbd_conn) -> i32>", scope: !153, file: !2, size: 64, align: 64, elements: !1121, templateParams: !15, identifier: "53e3c2619e79532f26752823e1c2f46f")
!1121 = !{!1122}
!1122 = !DICompositeType(tag: DW_TAG_variant_part, scope: !1120, file: !2, size: 64, align: 64, elements: !1123, templateParams: !15, identifier: "e9799cd72544d3463b84b0c3ab2037db", discriminator: !1135)
!1123 = !{!1124, !1131}
!1124 = !DIDerivedType(tag: DW_TAG_member, name: "None", scope: !1122, file: !2, baseType: !1125, size: 64, align: 64, extraData: i64 0)
!1125 = !DICompositeType(tag: DW_TAG_structure_type, name: "None", scope: !1120, file: !2, size: 64, align: 64, elements: !15, templateParams: !1126, identifier: "547ba298fa983d7be631d1372d244ada")
!1126 = !{!1127}
!1127 = !DITemplateTypeParameter(name: "T", type: !1128)
!1128 = !DIDerivedType(tag: DW_TAG_pointer_type, name: "unsafe extern \22C\22 fn(*mut bindings::bindings_raw::ksmbd_session, *mut bindings::bindings_raw::ksmbd_conn) -> i32", baseType: !1129, size: 64, align: 64, dwarfAddressSpace: 0)
!1129 = !DISubroutineType(types: !1130)
!1130 = !{!253, !341, !286}
!1131 = !DIDerivedType(tag: DW_TAG_member, name: "Some", scope: !1122, file: !2, baseType: !1132, size: 64, align: 64)
!1132 = !DICompositeType(tag: DW_TAG_structure_type, name: "Some", scope: !1120, file: !2, size: 64, align: 64, elements: !1133, templateParams: !1126, identifier: "adb1caa2a1e2c2efef909f4ab20735cf")
!1133 = !{!1134}
!1134 = !DIDerivedType(tag: DW_TAG_member, name: "__0", scope: !1132, file: !2, baseType: !1128, size: 64, align: 64)
!1135 = !DIDerivedType(tag: DW_TAG_member, scope: !1120, file: !2, baseType: !25, size: 64, align: 64, flags: DIFlagArtificial)
!1136 = !DIDerivedType(tag: DW_TAG_member, name: "generate_encryptionkey", scope: !322, file: !2, baseType: !1137, size: 64, align: 64, offset: 704)
!1137 = !DICompositeType(tag: DW_TAG_structure_type, name: "Option<unsafe extern \22C\22 fn(*mut bindings::bindings_raw::ksmbd_conn, *mut bindings::bindings_raw::ksmbd_session) -> i32>", scope: !153, file: !2, size: 64, align: 64, elements: !1138, templateParams: !15, identifier: "f0913db8272f15c72aaa64429c66b4a0")
!1138 = !{!1139}
!1139 = !DICompositeType(tag: DW_TAG_variant_part, scope: !1137, file: !2, size: 64, align: 64, elements: !1140, templateParams: !15, identifier: "b78467cd1965be8830ba5578a729b3bc", discriminator: !1152)
!1140 = !{!1141, !1148}
!1141 = !DIDerivedType(tag: DW_TAG_member, name: "None", scope: !1139, file: !2, baseType: !1142, size: 64, align: 64, extraData: i64 0)
!1142 = !DICompositeType(tag: DW_TAG_structure_type, name: "None", scope: !1137, file: !2, size: 64, align: 64, elements: !15, templateParams: !1143, identifier: "58f2a032c7c96c214703d2a8437bf772")
!1143 = !{!1144}
!1144 = !DITemplateTypeParameter(name: "T", type: !1145)
!1145 = !DIDerivedType(tag: DW_TAG_pointer_type, name: "unsafe extern \22C\22 fn(*mut bindings::bindings_raw::ksmbd_conn, *mut bindings::bindings_raw::ksmbd_session) -> i32", baseType: !1146, size: 64, align: 64, dwarfAddressSpace: 0)
!1146 = !DISubroutineType(types: !1147)
!1147 = !{!253, !286, !341}
!1148 = !DIDerivedType(tag: DW_TAG_member, name: "Some", scope: !1139, file: !2, baseType: !1149, size: 64, align: 64)
!1149 = !DICompositeType(tag: DW_TAG_structure_type, name: "Some", scope: !1137, file: !2, size: 64, align: 64, elements: !1150, templateParams: !1143, identifier: "ec654f03e1fab5d6e0a391dfc0c254eb")
!1150 = !{!1151}
!1151 = !DIDerivedType(tag: DW_TAG_member, name: "__0", scope: !1149, file: !2, baseType: !1145, size: 64, align: 64)
!1152 = !DIDerivedType(tag: DW_TAG_member, scope: !1137, file: !2, baseType: !25, size: 64, align: 64, flags: DIFlagArtificial)
!1153 = !DIDerivedType(tag: DW_TAG_member, name: "is_transform_hdr", scope: !322, file: !2, baseType: !1154, size: 64, align: 64, offset: 768)
!1154 = !DICompositeType(tag: DW_TAG_structure_type, name: "Option<unsafe extern \22C\22 fn(*mut core::ffi::c_void) -> bool>", scope: !153, file: !2, size: 64, align: 64, elements: !1155, templateParams: !15, identifier: "69304ae2d1f754177d5677f34b564b4")
!1155 = !{!1156}
!1156 = !DICompositeType(tag: DW_TAG_variant_part, scope: !1154, file: !2, size: 64, align: 64, elements: !1157, templateParams: !15, identifier: "90881ba7a66e29d9162f223baedbe713", discriminator: !1169)
!1157 = !{!1158, !1165}
!1158 = !DIDerivedType(tag: DW_TAG_member, name: "None", scope: !1156, file: !2, baseType: !1159, size: 64, align: 64, extraData: i64 0)
!1159 = !DICompositeType(tag: DW_TAG_structure_type, name: "None", scope: !1154, file: !2, size: 64, align: 64, elements: !15, templateParams: !1160, identifier: "a4b84aaa2ffaafc93a68c2173699223b")
!1160 = !{!1161}
!1161 = !DITemplateTypeParameter(name: "T", type: !1162)
!1162 = !DIDerivedType(tag: DW_TAG_pointer_type, name: "unsafe extern \22C\22 fn(*mut core::ffi::c_void) -> bool", baseType: !1163, size: 64, align: 64, dwarfAddressSpace: 0)
!1163 = !DISubroutineType(types: !1164)
!1164 = !{!361, !387}
!1165 = !DIDerivedType(tag: DW_TAG_member, name: "Some", scope: !1156, file: !2, baseType: !1166, size: 64, align: 64)
!1166 = !DICompositeType(tag: DW_TAG_structure_type, name: "Some", scope: !1154, file: !2, size: 64, align: 64, elements: !1167, templateParams: !1160, identifier: "6e011a6060b244fcf84e942b2357a83d")
!1167 = !{!1168}
!1168 = !DIDerivedType(tag: DW_TAG_member, name: "__0", scope: !1166, file: !2, baseType: !1162, size: 64, align: 64)
!1169 = !DIDerivedType(tag: DW_TAG_member, scope: !1154, file: !2, baseType: !25, size: 64, align: 64, flags: DIFlagArtificial)
!1170 = !DIDerivedType(tag: DW_TAG_member, name: "decrypt_req", scope: !322, file: !2, baseType: !1047, size: 64, align: 64, offset: 832)
!1171 = !DIDerivedType(tag: DW_TAG_member, name: "encrypt_resp", scope: !322, file: !2, baseType: !1047, size: 64, align: 64, offset: 896)
!1172 = !DIDerivedType(tag: DW_TAG_member, name: "cmds", scope: !287, file: !2, baseType: !1173, size: 64, align: 64, offset: 128)
!1173 = !DIDerivedType(tag: DW_TAG_pointer_type, name: "*mut bindings::bindings_raw::smb_version_cmds", baseType: !1174, size: 64, align: 64, dwarfAddressSpace: 0)
!1174 = !DICompositeType(tag: DW_TAG_structure_type, name: "smb_version_cmds", scope: !196, file: !2, size: 64, align: 64, elements: !1175, templateParams: !15, identifier: "b38cfae5f4c17c16d7daac9049f146d9")
!1175 = !{!1176}
!1176 = !DIDerivedType(tag: DW_TAG_member, name: "proc_", scope: !1174, file: !2, baseType: !1047, size: 64, align: 64)
!1177 = !DIDerivedType(tag: DW_TAG_member, name: "max_cmds", scope: !287, file: !2, baseType: !147, size: 32, align: 32, offset: 192)
!1178 = !DIDerivedType(tag: DW_TAG_member, name: "srv_mutex", scope: !287, file: !2, baseType: !1179, size: 256, align: 64, offset: 256)
!1179 = !DICompositeType(tag: DW_TAG_structure_type, name: "mutex", scope: !196, file: !2, size: 256, align: 64, elements: !1180, templateParams: !15, identifier: "1fb696c190936246d9d7460babf63d12")
!1180 = !{!1181, !1182, !1183, !1184}
!1181 = !DIDerivedType(tag: DW_TAG_member, name: "owner", scope: !1179, file: !2, baseType: !533, size: 64, align: 64)
!1182 = !DIDerivedType(tag: DW_TAG_member, name: "wait_lock", scope: !1179, file: !2, baseType: !543, size: 32, align: 32, offset: 64)
!1183 = !DIDerivedType(tag: DW_TAG_member, name: "osq", scope: !1179, file: !2, baseType: !539, size: 32, align: 32, offset: 96)
!1184 = !DIDerivedType(tag: DW_TAG_member, name: "wait_list", scope: !1179, file: !2, baseType: !463, size: 128, align: 64, offset: 128)
!1185 = !DIDerivedType(tag: DW_TAG_member, name: "status", scope: !287, file: !2, baseType: !253, size: 32, align: 32, offset: 512)
!1186 = !DIDerivedType(tag: DW_TAG_member, name: "cli_cap", scope: !287, file: !2, baseType: !147, size: 32, align: 32, offset: 544)
!1187 = !DIDerivedType(tag: DW_TAG_member, name: "request_buf", scope: !287, file: !2, baseType: !294, size: 64, align: 64, offset: 576)
!1188 = !DIDerivedType(tag: DW_TAG_member, name: "transport", scope: !287, file: !2, baseType: !1189, size: 64, align: 64, offset: 640)
!1189 = !DIDerivedType(tag: DW_TAG_pointer_type, name: "*mut bindings::bindings_raw::ksmbd_transport", baseType: !1190, size: 64, align: 64, dwarfAddressSpace: 0)
!1190 = !DICompositeType(tag: DW_TAG_structure_type, name: "ksmbd_transport", scope: !196, file: !2, size: 192, align: 64, elements: !1191, templateParams: !15, identifier: "fb3190d7e34e90c95423069e4a8263e0")
!1191 = !{!1192, !1193, !1295}
!1192 = !DIDerivedType(tag: DW_TAG_member, name: "conn", scope: !1190, file: !2, baseType: !286, size: 64, align: 64)
!1193 = !DIDerivedType(tag: DW_TAG_member, name: "ops", scope: !1190, file: !2, baseType: !1194, size: 64, align: 64, offset: 64)
!1194 = !DIDerivedType(tag: DW_TAG_pointer_type, name: "*mut bindings::bindings_raw::ksmbd_transport_ops", baseType: !1195, size: 64, align: 64, dwarfAddressSpace: 0)
!1195 = !DICompositeType(tag: DW_TAG_structure_type, name: "ksmbd_transport_ops", scope: !196, file: !2, size: 448, align: 64, elements: !1196, templateParams: !15, identifier: "cfd67ba9c42a43bcda1d66e0a5ebb562")
!1196 = !{!1197, !1214, !1231, !1232, !1249, !1271, !1294}
!1197 = !DIDerivedType(tag: DW_TAG_member, name: "prepare", scope: !1195, file: !2, baseType: !1198, size: 64, align: 64)
!1198 = !DICompositeType(tag: DW_TAG_structure_type, name: "Option<unsafe extern \22C\22 fn(*mut bindings::bindings_raw::ksmbd_transport) -> i32>", scope: !153, file: !2, size: 64, align: 64, elements: !1199, templateParams: !15, identifier: "62853f2923ac13049b8d67bfec00b29d")
!1199 = !{!1200}
!1200 = !DICompositeType(tag: DW_TAG_variant_part, scope: !1198, file: !2, size: 64, align: 64, elements: !1201, templateParams: !15, identifier: "92ce3ad83ccc3a2931e27af56f710311", discriminator: !1213)
!1201 = !{!1202, !1209}
!1202 = !DIDerivedType(tag: DW_TAG_member, name: "None", scope: !1200, file: !2, baseType: !1203, size: 64, align: 64, extraData: i64 0)
!1203 = !DICompositeType(tag: DW_TAG_structure_type, name: "None", scope: !1198, file: !2, size: 64, align: 64, elements: !15, templateParams: !1204, identifier: "96b69e53d86e5b8fe8e9c4dae98f5bb5")
!1204 = !{!1205}
!1205 = !DITemplateTypeParameter(name: "T", type: !1206)
!1206 = !DIDerivedType(tag: DW_TAG_pointer_type, name: "unsafe extern \22C\22 fn(*mut bindings::bindings_raw::ksmbd_transport) -> i32", baseType: !1207, size: 64, align: 64, dwarfAddressSpace: 0)
!1207 = !DISubroutineType(types: !1208)
!1208 = !{!253, !1189}
!1209 = !DIDerivedType(tag: DW_TAG_member, name: "Some", scope: !1200, file: !2, baseType: !1210, size: 64, align: 64)
!1210 = !DICompositeType(tag: DW_TAG_structure_type, name: "Some", scope: !1198, file: !2, size: 64, align: 64, elements: !1211, templateParams: !1204, identifier: "df9a3f7fbf9b5b094b4d4c21d1e6c100")
!1211 = !{!1212}
!1212 = !DIDerivedType(tag: DW_TAG_member, name: "__0", scope: !1210, file: !2, baseType: !1206, size: 64, align: 64)
!1213 = !DIDerivedType(tag: DW_TAG_member, scope: !1198, file: !2, baseType: !25, size: 64, align: 64, flags: DIFlagArtificial)
!1214 = !DIDerivedType(tag: DW_TAG_member, name: "disconnect", scope: !1195, file: !2, baseType: !1215, size: 64, align: 64, offset: 64)
!1215 = !DICompositeType(tag: DW_TAG_structure_type, name: "Option<unsafe extern \22C\22 fn(*mut bindings::bindings_raw::ksmbd_transport)>", scope: !153, file: !2, size: 64, align: 64, elements: !1216, templateParams: !15, identifier: "65c67b0856ac01b3226b04cd933db4b1")
!1216 = !{!1217}
!1217 = !DICompositeType(tag: DW_TAG_variant_part, scope: !1215, file: !2, size: 64, align: 64, elements: !1218, templateParams: !15, identifier: "23e7de9f7f16e5b1a5fa1526c285e6a5", discriminator: !1230)
!1218 = !{!1219, !1226}
!1219 = !DIDerivedType(tag: DW_TAG_member, name: "None", scope: !1217, file: !2, baseType: !1220, size: 64, align: 64, extraData: i64 0)
!1220 = !DICompositeType(tag: DW_TAG_structure_type, name: "None", scope: !1215, file: !2, size: 64, align: 64, elements: !15, templateParams: !1221, identifier: "2912bb2dbf608520ef929e0f11dd9a26")
!1221 = !{!1222}
!1222 = !DITemplateTypeParameter(name: "T", type: !1223)
!1223 = !DIDerivedType(tag: DW_TAG_pointer_type, name: "unsafe extern \22C\22 fn(*mut bindings::bindings_raw::ksmbd_transport)", baseType: !1224, size: 64, align: 64, dwarfAddressSpace: 0)
!1224 = !DISubroutineType(types: !1225)
!1225 = !{null, !1189}
!1226 = !DIDerivedType(tag: DW_TAG_member, name: "Some", scope: !1217, file: !2, baseType: !1227, size: 64, align: 64)
!1227 = !DICompositeType(tag: DW_TAG_structure_type, name: "Some", scope: !1215, file: !2, size: 64, align: 64, elements: !1228, templateParams: !1221, identifier: "df6747f190cd0e5c53996d7f85147b7b")
!1228 = !{!1229}
!1229 = !DIDerivedType(tag: DW_TAG_member, name: "__0", scope: !1227, file: !2, baseType: !1223, size: 64, align: 64)
!1230 = !DIDerivedType(tag: DW_TAG_member, scope: !1215, file: !2, baseType: !25, size: 64, align: 64, flags: DIFlagArtificial)
!1231 = !DIDerivedType(tag: DW_TAG_member, name: "shutdown", scope: !1195, file: !2, baseType: !1215, size: 64, align: 64, offset: 128)
!1232 = !DIDerivedType(tag: DW_TAG_member, name: "read", scope: !1195, file: !2, baseType: !1233, size: 64, align: 64, offset: 192)
!1233 = !DICompositeType(tag: DW_TAG_structure_type, name: "Option<unsafe extern \22C\22 fn(*mut bindings::bindings_raw::ksmbd_transport, *mut i8, u32, i32) -> i32>", scope: !153, file: !2, size: 64, align: 64, elements: !1234, templateParams: !15, identifier: "21392e540f403ed3b183b1051feee75d")
!1234 = !{!1235}
!1235 = !DICompositeType(tag: DW_TAG_variant_part, scope: !1233, file: !2, size: 64, align: 64, elements: !1236, templateParams: !15, identifier: "4b80993496c5bfe4824d9cc456d039ad", discriminator: !1248)
!1236 = !{!1237, !1244}
!1237 = !DIDerivedType(tag: DW_TAG_member, name: "None", scope: !1235, file: !2, baseType: !1238, size: 64, align: 64, extraData: i64 0)
!1238 = !DICompositeType(tag: DW_TAG_structure_type, name: "None", scope: !1233, file: !2, size: 64, align: 64, elements: !15, templateParams: !1239, identifier: "8f8143a3a6b00fb097c17a09663c381b")
!1239 = !{!1240}
!1240 = !DITemplateTypeParameter(name: "T", type: !1241)
!1241 = !DIDerivedType(tag: DW_TAG_pointer_type, name: "unsafe extern \22C\22 fn(*mut bindings::bindings_raw::ksmbd_transport, *mut i8, u32, i32) -> i32", baseType: !1242, size: 64, align: 64, dwarfAddressSpace: 0)
!1242 = !DISubroutineType(types: !1243)
!1243 = !{!253, !1189, !294, !147, !253}
!1244 = !DIDerivedType(tag: DW_TAG_member, name: "Some", scope: !1235, file: !2, baseType: !1245, size: 64, align: 64)
!1245 = !DICompositeType(tag: DW_TAG_structure_type, name: "Some", scope: !1233, file: !2, size: 64, align: 64, elements: !1246, templateParams: !1239, identifier: "b44fb2ea2be64f3924802f55f758936e")
!1246 = !{!1247}
!1247 = !DIDerivedType(tag: DW_TAG_member, name: "__0", scope: !1245, file: !2, baseType: !1241, size: 64, align: 64)
!1248 = !DIDerivedType(tag: DW_TAG_member, scope: !1233, file: !2, baseType: !25, size: 64, align: 64, flags: DIFlagArtificial)
!1249 = !DIDerivedType(tag: DW_TAG_member, name: "writev", scope: !1195, file: !2, baseType: !1250, size: 64, align: 64, offset: 256)
!1250 = !DICompositeType(tag: DW_TAG_structure_type, name: "Option<unsafe extern \22C\22 fn(*mut bindings::bindings_raw::ksmbd_transport, *mut bindings::bindings_raw::kvec, i32, i32, bool, u32) -> i32>", scope: !153, file: !2, size: 64, align: 64, elements: !1251, templateParams: !15, identifier: "f1286f82ad3efb981a8471bc0ed9d0ed")
!1251 = !{!1252}
!1252 = !DICompositeType(tag: DW_TAG_variant_part, scope: !1250, file: !2, size: 64, align: 64, elements: !1253, templateParams: !15, identifier: "94b208f58b6d762a1538b8a8239d19b6", discriminator: !1270)
!1253 = !{!1254, !1266}
!1254 = !DIDerivedType(tag: DW_TAG_member, name: "None", scope: !1252, file: !2, baseType: !1255, size: 64, align: 64, extraData: i64 0)
!1255 = !DICompositeType(tag: DW_TAG_structure_type, name: "None", scope: !1250, file: !2, size: 64, align: 64, elements: !15, templateParams: !1256, identifier: "dedc69720268e6966bf38ef50acc8a42")
!1256 = !{!1257}
!1257 = !DITemplateTypeParameter(name: "T", type: !1258)
!1258 = !DIDerivedType(tag: DW_TAG_pointer_type, name: "unsafe extern \22C\22 fn(*mut bindings::bindings_raw::ksmbd_transport, *mut bindings::bindings_raw::kvec, i32, i32, bool, u32) -> i32", baseType: !1259, size: 64, align: 64, dwarfAddressSpace: 0)
!1259 = !DISubroutineType(types: !1260)
!1260 = !{!253, !1189, !1261, !253, !253, !361, !147}
!1261 = !DIDerivedType(tag: DW_TAG_pointer_type, name: "*mut bindings::bindings_raw::kvec", baseType: !1262, size: 64, align: 64, dwarfAddressSpace: 0)
!1262 = !DICompositeType(tag: DW_TAG_structure_type, name: "kvec", scope: !196, file: !2, size: 128, align: 64, elements: !1263, templateParams: !15, identifier: "8933be2ecc1db47d402c90afa508bbf3")
!1263 = !{!1264, !1265}
!1264 = !DIDerivedType(tag: DW_TAG_member, name: "iov_base", scope: !1262, file: !2, baseType: !387, size: 64, align: 64)
!1265 = !DIDerivedType(tag: DW_TAG_member, name: "iov_len", scope: !1262, file: !2, baseType: !9, size: 64, align: 64, offset: 64)
!1266 = !DIDerivedType(tag: DW_TAG_member, name: "Some", scope: !1252, file: !2, baseType: !1267, size: 64, align: 64)
!1267 = !DICompositeType(tag: DW_TAG_structure_type, name: "Some", scope: !1250, file: !2, size: 64, align: 64, elements: !1268, templateParams: !1256, identifier: "365252455fc1ce29202561da00c89cd2")
!1268 = !{!1269}
!1269 = !DIDerivedType(tag: DW_TAG_member, name: "__0", scope: !1267, file: !2, baseType: !1258, size: 64, align: 64)
!1270 = !DIDerivedType(tag: DW_TAG_member, scope: !1250, file: !2, baseType: !25, size: 64, align: 64, flags: DIFlagArtificial)
!1271 = !DIDerivedType(tag: DW_TAG_member, name: "rdma_read", scope: !1195, file: !2, baseType: !1272, size: 64, align: 64, offset: 320)
!1272 = !DICompositeType(tag: DW_TAG_structure_type, name: "Option<unsafe extern \22C\22 fn(*mut bindings::bindings_raw::ksmbd_transport, *mut core::ffi::c_void, u32, *mut bindings::bindings_raw::smb2_buffer_desc_v1, u32) -> i32>", scope: !153, file: !2, size: 64, align: 64, elements: !1273, templateParams: !15, identifier: "3e515b69cb55c4aaad020cccbe1ac8a7")
!1273 = !{!1274}
!1274 = !DICompositeType(tag: DW_TAG_variant_part, scope: !1272, file: !2, size: 64, align: 64, elements: !1275, templateParams: !15, identifier: "38c8bc42d47a9cd7b43f10ac81d04dfc", discriminator: !1293)
!1275 = !{!1276, !1289}
!1276 = !DIDerivedType(tag: DW_TAG_member, name: "None", scope: !1274, file: !2, baseType: !1277, size: 64, align: 64, extraData: i64 0)
!1277 = !DICompositeType(tag: DW_TAG_structure_type, name: "None", scope: !1272, file: !2, size: 64, align: 64, elements: !15, templateParams: !1278, identifier: "8c18f9e9ff43eae1cfab487fdd4e66ca")
!1278 = !{!1279}
!1279 = !DITemplateTypeParameter(name: "T", type: !1280)
!1280 = !DIDerivedType(tag: DW_TAG_pointer_type, name: "unsafe extern \22C\22 fn(*mut bindings::bindings_raw::ksmbd_transport, *mut core::ffi::c_void, u32, *mut bindings::bindings_raw::smb2_buffer_desc_v1, u32) -> i32", baseType: !1281, size: 64, align: 64, dwarfAddressSpace: 0)
!1281 = !DISubroutineType(types: !1282)
!1282 = !{!253, !1189, !387, !147, !1283, !147}
!1283 = !DIDerivedType(tag: DW_TAG_pointer_type, name: "*mut bindings::bindings_raw::smb2_buffer_desc_v1", baseType: !1284, size: 64, align: 64, dwarfAddressSpace: 0)
!1284 = !DICompositeType(tag: DW_TAG_structure_type, name: "smb2_buffer_desc_v1", scope: !196, file: !2, size: 128, align: 8, elements: !1285, templateParams: !15, identifier: "1ac985c032095e11a81e930f371438e")
!1285 = !{!1286, !1287, !1288}
!1286 = !DIDerivedType(tag: DW_TAG_member, name: "offset", scope: !1284, file: !2, baseType: !25, size: 64, align: 64)
!1287 = !DIDerivedType(tag: DW_TAG_member, name: "token", scope: !1284, file: !2, baseType: !147, size: 32, align: 32, offset: 64)
!1288 = !DIDerivedType(tag: DW_TAG_member, name: "length", scope: !1284, file: !2, baseType: !147, size: 32, align: 32, offset: 96)
!1289 = !DIDerivedType(tag: DW_TAG_member, name: "Some", scope: !1274, file: !2, baseType: !1290, size: 64, align: 64)
!1290 = !DICompositeType(tag: DW_TAG_structure_type, name: "Some", scope: !1272, file: !2, size: 64, align: 64, elements: !1291, templateParams: !1278, identifier: "5fad8b35faa3d3abb1e14bae4cb96456")
!1291 = !{!1292}
!1292 = !DIDerivedType(tag: DW_TAG_member, name: "__0", scope: !1290, file: !2, baseType: !1280, size: 64, align: 64)
!1293 = !DIDerivedType(tag: DW_TAG_member, scope: !1272, file: !2, baseType: !25, size: 64, align: 64, flags: DIFlagArtificial)
!1294 = !DIDerivedType(tag: DW_TAG_member, name: "rdma_write", scope: !1195, file: !2, baseType: !1272, size: 64, align: 64, offset: 384)
!1295 = !DIDerivedType(tag: DW_TAG_member, name: "handler", scope: !1190, file: !2, baseType: !1296, size: 64, align: 64, offset: 128)
!1296 = !DIDerivedType(tag: DW_TAG_pointer_type, name: "*mut bindings::bindings_raw::task_struct", baseType: !1297, size: 64, align: 64, dwarfAddressSpace: 0)
!1297 = !DICompositeType(tag: DW_TAG_structure_type, name: "task_struct", scope: !196, file: !2, size: 53760, align: 512, elements: !1298, templateParams: !15, identifier: "f9d4957c99c7b476490c4014e6428114")
!1298 = !{!1299, !1306, !1307, !1308, !1309, !1310, !1311, !1312, !1328, !1329, !1330, !1331, !1332, !1333, !1334, !1335, !1336, !1337, !1338, !1340, !1373, !1384, !1487, !1492, !1493, !1495, !1496, !1497, !1503, !1505, !1506, !1507, !1508, !1509, !1510, !1522, !1523, !1528, !1529, !1530, !1531, !1532, !1533, !1535, !1536, !1542, !1543, !15173, !15174, !15175, !15176, !15177, !15178, !15179, !15180, !15187, !15188, !15259, !15260, !15261, !15262, !15263, !15264, !15265, !15266, !15267, !15268, !15269, !15270, !15272, !15273, !15274, !15275, !15276, !15277, !15278, !15279, !15280, !15281, !15287, !15288, !15289, !15290, !15291, !15292, !15293, !15304, !15309, !15310, !15311, !15312, !15313, !15314, !15319, !15327, !15331, !15336, !15341, !15346, !15831, !15935, !15969, !15970, !15971, !15972, !15973, !15974, !15975, !15976, !15977, !15987, !15994, !15995, !15996, !15997, !15998, !16003, !16004, !16005, !16010, !16011, !16016, !16021, !16026, !16027, !16034, !16039, !16040, !16124, !16125, !16126, !16127, !16132, !16133, !16138, !16139, !16140, !16145, !16146, !16147, !16158, !16159, !16160, !16161, !16162, !16163, !16172, !16178, !16179, !16180, !16181, !16182, !16183, !16184, !16185, !16186, !16187, !16188, !16193, !16194, !16195, !16196, !16197, !16238, !16240, !16241, !16242, !16243, !16244, !16245, !16246, !16247, !16255, !16256, !16257, !16261, !16262, !16263}
!1299 = !DIDerivedType(tag: DW_TAG_member, name: "thread_info", scope: !1297, file: !2, baseType: !1300, size: 192, align: 64)
!1300 = !DICompositeType(tag: DW_TAG_structure_type, name: "thread_info", scope: !196, file: !2, size: 192, align: 64, elements: !1301, templateParams: !15, identifier: "6556c45524d025a187f15b1bd8068c45")
!1301 = !{!1302, !1303, !1304, !1305}
!1302 = !DIDerivedType(tag: DW_TAG_member, name: "flags", scope: !1300, file: !2, baseType: !25, size: 64, align: 64)
!1303 = !DIDerivedType(tag: DW_TAG_member, name: "syscall_work", scope: !1300, file: !2, baseType: !25, size: 64, align: 64, offset: 64)
!1304 = !DIDerivedType(tag: DW_TAG_member, name: "status", scope: !1300, file: !2, baseType: !147, size: 32, align: 32, offset: 128)
!1305 = !DIDerivedType(tag: DW_TAG_member, name: "cpu", scope: !1300, file: !2, baseType: !147, size: 32, align: 32, offset: 160)
!1306 = !DIDerivedType(tag: DW_TAG_member, name: "__state", scope: !1297, file: !2, baseType: !147, size: 32, align: 32, offset: 192)
!1307 = !DIDerivedType(tag: DW_TAG_member, name: "stack", scope: !1297, file: !2, baseType: !387, size: 64, align: 64, offset: 256)
!1308 = !DIDerivedType(tag: DW_TAG_member, name: "usage", scope: !1297, file: !2, baseType: !512, size: 32, align: 32, offset: 320)
!1309 = !DIDerivedType(tag: DW_TAG_member, name: "flags", scope: !1297, file: !2, baseType: !147, size: 32, align: 32, offset: 352)
!1310 = !DIDerivedType(tag: DW_TAG_member, name: "ptrace", scope: !1297, file: !2, baseType: !147, size: 32, align: 32, offset: 384)
!1311 = !DIDerivedType(tag: DW_TAG_member, name: "on_cpu", scope: !1297, file: !2, baseType: !253, size: 32, align: 32, offset: 416)
!1312 = !DIDerivedType(tag: DW_TAG_member, name: "wake_entry", scope: !1297, file: !2, baseType: !1313, size: 128, align: 64, offset: 448)
!1313 = !DICompositeType(tag: DW_TAG_structure_type, name: "__call_single_node", scope: !196, file: !2, size: 128, align: 64, elements: !1314, templateParams: !15, identifier: "2e5dc0051be61b849242461c671d668d")
!1314 = !{!1315, !1320, !1326, !1327}
!1315 = !DIDerivedType(tag: DW_TAG_member, name: "llist", scope: !1313, file: !2, baseType: !1316, size: 64, align: 64)
!1316 = !DICompositeType(tag: DW_TAG_structure_type, name: "llist_node", scope: !196, file: !2, size: 64, align: 64, elements: !1317, templateParams: !15, identifier: "cd25346760256918910f0842d32531b")
!1317 = !{!1318}
!1318 = !DIDerivedType(tag: DW_TAG_member, name: "next", scope: !1316, file: !2, baseType: !1319, size: 64, align: 64)
!1319 = !DIDerivedType(tag: DW_TAG_pointer_type, name: "*mut bindings::bindings_raw::llist_node", baseType: !1316, size: 64, align: 64, dwarfAddressSpace: 0)
!1320 = !DIDerivedType(tag: DW_TAG_member, name: "__bindgen_anon_1", scope: !1313, file: !2, baseType: !1321, size: 32, align: 32, offset: 64)
!1321 = !DICompositeType(tag: DW_TAG_union_type, name: "__call_single_node__bindgen_ty_1", scope: !196, file: !2, size: 32, align: 32, elements: !1322, templateParams: !15, identifier: "ac43ee0e47c0f17ffb4fa3bd34745042")
!1322 = !{!1323, !1324, !1325}
!1323 = !DIDerivedType(tag: DW_TAG_member, name: "u_flags", scope: !1321, file: !2, baseType: !147, size: 32, align: 32)
!1324 = !DIDerivedType(tag: DW_TAG_member, name: "a_flags", scope: !1321, file: !2, baseType: !414, size: 32, align: 32)
!1325 = !DIDerivedType(tag: DW_TAG_member, name: "_bindgen_union_align", scope: !1321, file: !2, baseType: !147, size: 32, align: 32)
!1326 = !DIDerivedType(tag: DW_TAG_member, name: "src", scope: !1313, file: !2, baseType: !142, size: 16, align: 16, offset: 96)
!1327 = !DIDerivedType(tag: DW_TAG_member, name: "dst", scope: !1313, file: !2, baseType: !142, size: 16, align: 16, offset: 112)
!1328 = !DIDerivedType(tag: DW_TAG_member, name: "wakee_flips", scope: !1297, file: !2, baseType: !147, size: 32, align: 32, offset: 576)
!1329 = !DIDerivedType(tag: DW_TAG_member, name: "wakee_flip_decay_ts", scope: !1297, file: !2, baseType: !25, size: 64, align: 64, offset: 640)
!1330 = !DIDerivedType(tag: DW_TAG_member, name: "last_wakee", scope: !1297, file: !2, baseType: !1296, size: 64, align: 64, offset: 704)
!1331 = !DIDerivedType(tag: DW_TAG_member, name: "recent_used_cpu", scope: !1297, file: !2, baseType: !253, size: 32, align: 32, offset: 768)
!1332 = !DIDerivedType(tag: DW_TAG_member, name: "wake_cpu", scope: !1297, file: !2, baseType: !253, size: 32, align: 32, offset: 800)
!1333 = !DIDerivedType(tag: DW_TAG_member, name: "on_rq", scope: !1297, file: !2, baseType: !253, size: 32, align: 32, offset: 832)
!1334 = !DIDerivedType(tag: DW_TAG_member, name: "prio", scope: !1297, file: !2, baseType: !253, size: 32, align: 32, offset: 864)
!1335 = !DIDerivedType(tag: DW_TAG_member, name: "static_prio", scope: !1297, file: !2, baseType: !253, size: 32, align: 32, offset: 896)
!1336 = !DIDerivedType(tag: DW_TAG_member, name: "normal_prio", scope: !1297, file: !2, baseType: !253, size: 32, align: 32, offset: 928)
!1337 = !DIDerivedType(tag: DW_TAG_member, name: "rt_priority", scope: !1297, file: !2, baseType: !147, size: 32, align: 32, offset: 960)
!1338 = !DIDerivedType(tag: DW_TAG_member, name: "__bindgen_padding_0", scope: !1297, file: !2, baseType: !1339, align: 64, offset: 1024)
!1339 = !DICompositeType(tag: DW_TAG_array_type, baseType: !25, align: 64, elements: !284)
!1340 = !DIDerivedType(tag: DW_TAG_member, name: "se", scope: !1297, file: !2, baseType: !1341, size: 1536, align: 512, offset: 1024)
!1341 = !DICompositeType(tag: DW_TAG_structure_type, name: "sched_entity", scope: !196, file: !2, size: 1536, align: 512, elements: !1342, templateParams: !15, identifier: "d0caff8356398c0a131c470f2db24c05")
!1342 = !{!1343, !1348, !1349, !1350, !1351, !1352, !1353, !1354, !1355, !1356, !1357}
!1343 = !DIDerivedType(tag: DW_TAG_member, name: "load", scope: !1341, file: !2, baseType: !1344, size: 128, align: 64)
!1344 = !DICompositeType(tag: DW_TAG_structure_type, name: "load_weight", scope: !196, file: !2, size: 128, align: 64, elements: !1345, templateParams: !15, identifier: "c5d9467a326fc5858c3660d5c73a2144")
!1345 = !{!1346, !1347}
!1346 = !DIDerivedType(tag: DW_TAG_member, name: "weight", scope: !1344, file: !2, baseType: !25, size: 64, align: 64)
!1347 = !DIDerivedType(tag: DW_TAG_member, name: "inv_weight", scope: !1344, file: !2, baseType: !147, size: 32, align: 32, offset: 64)
!1348 = !DIDerivedType(tag: DW_TAG_member, name: "run_node", scope: !1341, file: !2, baseType: !521, size: 192, align: 64, offset: 128)
!1349 = !DIDerivedType(tag: DW_TAG_member, name: "group_node", scope: !1341, file: !2, baseType: !463, size: 128, align: 64, offset: 320)
!1350 = !DIDerivedType(tag: DW_TAG_member, name: "on_rq", scope: !1341, file: !2, baseType: !147, size: 32, align: 32, offset: 448)
!1351 = !DIDerivedType(tag: DW_TAG_member, name: "exec_start", scope: !1341, file: !2, baseType: !25, size: 64, align: 64, offset: 512)
!1352 = !DIDerivedType(tag: DW_TAG_member, name: "sum_exec_runtime", scope: !1341, file: !2, baseType: !25, size: 64, align: 64, offset: 576)
!1353 = !DIDerivedType(tag: DW_TAG_member, name: "vruntime", scope: !1341, file: !2, baseType: !25, size: 64, align: 64, offset: 640)
!1354 = !DIDerivedType(tag: DW_TAG_member, name: "prev_sum_exec_runtime", scope: !1341, file: !2, baseType: !25, size: 64, align: 64, offset: 704)
!1355 = !DIDerivedType(tag: DW_TAG_member, name: "nr_migrations", scope: !1341, file: !2, baseType: !25, size: 64, align: 64, offset: 768)
!1356 = !DIDerivedType(tag: DW_TAG_member, name: "__bindgen_padding_0", scope: !1341, file: !2, baseType: !528, size: 192, align: 64, offset: 832)
!1357 = !DIDerivedType(tag: DW_TAG_member, name: "avg", scope: !1341, file: !2, baseType: !1358, size: 512, align: 512, offset: 1024)
!1358 = !DICompositeType(tag: DW_TAG_structure_type, name: "sched_avg", scope: !196, file: !2, size: 512, align: 512, elements: !1359, templateParams: !15, identifier: "92e826335da17cc99744311eb9de1ffa")
!1359 = !{!1360, !1361, !1362, !1363, !1364, !1365, !1366, !1367, !1368}
!1360 = !DIDerivedType(tag: DW_TAG_member, name: "last_update_time", scope: !1358, file: !2, baseType: !25, size: 64, align: 64)
!1361 = !DIDerivedType(tag: DW_TAG_member, name: "load_sum", scope: !1358, file: !2, baseType: !25, size: 64, align: 64, offset: 64)
!1362 = !DIDerivedType(tag: DW_TAG_member, name: "runnable_sum", scope: !1358, file: !2, baseType: !25, size: 64, align: 64, offset: 128)
!1363 = !DIDerivedType(tag: DW_TAG_member, name: "util_sum", scope: !1358, file: !2, baseType: !147, size: 32, align: 32, offset: 192)
!1364 = !DIDerivedType(tag: DW_TAG_member, name: "period_contrib", scope: !1358, file: !2, baseType: !147, size: 32, align: 32, offset: 224)
!1365 = !DIDerivedType(tag: DW_TAG_member, name: "load_avg", scope: !1358, file: !2, baseType: !25, size: 64, align: 64, offset: 256)
!1366 = !DIDerivedType(tag: DW_TAG_member, name: "runnable_avg", scope: !1358, file: !2, baseType: !25, size: 64, align: 64, offset: 320)
!1367 = !DIDerivedType(tag: DW_TAG_member, name: "util_avg", scope: !1358, file: !2, baseType: !25, size: 64, align: 64, offset: 384)
!1368 = !DIDerivedType(tag: DW_TAG_member, name: "util_est", scope: !1358, file: !2, baseType: !1369, size: 64, align: 64, offset: 448)
!1369 = !DICompositeType(tag: DW_TAG_structure_type, name: "util_est", scope: !196, file: !2, size: 64, align: 64, elements: !1370, templateParams: !15, identifier: "15faaecf233f3e7300cc7f04f937a0f")
!1370 = !{!1371, !1372}
!1371 = !DIDerivedType(tag: DW_TAG_member, name: "enqueued", scope: !1369, file: !2, baseType: !147, size: 32, align: 32)
!1372 = !DIDerivedType(tag: DW_TAG_member, name: "ewma", scope: !1369, file: !2, baseType: !147, size: 32, align: 32, offset: 32)
!1373 = !DIDerivedType(tag: DW_TAG_member, name: "rt", scope: !1297, file: !2, baseType: !1374, size: 384, align: 64, offset: 2560)
!1374 = !DICompositeType(tag: DW_TAG_structure_type, name: "sched_rt_entity", scope: !196, file: !2, size: 384, align: 64, elements: !1375, templateParams: !15, identifier: "3a8b6ca17a6a1af9a40d56bbd4b5e6fa")
!1375 = !{!1376, !1377, !1378, !1379, !1380, !1381, !1382}
!1376 = !DIDerivedType(tag: DW_TAG_member, name: "run_list", scope: !1374, file: !2, baseType: !463, size: 128, align: 64)
!1377 = !DIDerivedType(tag: DW_TAG_member, name: "timeout", scope: !1374, file: !2, baseType: !25, size: 64, align: 64, offset: 128)
!1378 = !DIDerivedType(tag: DW_TAG_member, name: "watchdog_stamp", scope: !1374, file: !2, baseType: !25, size: 64, align: 64, offset: 192)
!1379 = !DIDerivedType(tag: DW_TAG_member, name: "time_slice", scope: !1374, file: !2, baseType: !147, size: 32, align: 32, offset: 256)
!1380 = !DIDerivedType(tag: DW_TAG_member, name: "on_rq", scope: !1374, file: !2, baseType: !142, size: 16, align: 16, offset: 288)
!1381 = !DIDerivedType(tag: DW_TAG_member, name: "on_list", scope: !1374, file: !2, baseType: !142, size: 16, align: 16, offset: 304)
!1382 = !DIDerivedType(tag: DW_TAG_member, name: "back", scope: !1374, file: !2, baseType: !1383, size: 64, align: 64, offset: 320)
!1383 = !DIDerivedType(tag: DW_TAG_pointer_type, name: "*mut bindings::bindings_raw::sched_rt_entity", baseType: !1374, size: 64, align: 64, dwarfAddressSpace: 0)
!1384 = !DIDerivedType(tag: DW_TAG_member, name: "dl", scope: !1297, file: !2, baseType: !1385, size: 1792, align: 64, offset: 2944)
!1385 = !DICompositeType(tag: DW_TAG_structure_type, name: "sched_dl_entity", scope: !196, file: !2, size: 1792, align: 64, elements: !1386, templateParams: !15, identifier: "cadbab1ecfd75e32d3a9e80c8d32169f")
!1386 = !{!1387, !1388, !1389, !1390, !1391, !1392, !1393, !1394, !1395, !1396, !1397, !1484, !1485}
!1387 = !DIDerivedType(tag: DW_TAG_member, name: "rb_node", scope: !1385, file: !2, baseType: !521, size: 192, align: 64)
!1388 = !DIDerivedType(tag: DW_TAG_member, name: "dl_runtime", scope: !1385, file: !2, baseType: !25, size: 64, align: 64, offset: 192)
!1389 = !DIDerivedType(tag: DW_TAG_member, name: "dl_deadline", scope: !1385, file: !2, baseType: !25, size: 64, align: 64, offset: 256)
!1390 = !DIDerivedType(tag: DW_TAG_member, name: "dl_period", scope: !1385, file: !2, baseType: !25, size: 64, align: 64, offset: 320)
!1391 = !DIDerivedType(tag: DW_TAG_member, name: "dl_bw", scope: !1385, file: !2, baseType: !25, size: 64, align: 64, offset: 384)
!1392 = !DIDerivedType(tag: DW_TAG_member, name: "dl_density", scope: !1385, file: !2, baseType: !25, size: 64, align: 64, offset: 448)
!1393 = !DIDerivedType(tag: DW_TAG_member, name: "runtime", scope: !1385, file: !2, baseType: !536, size: 64, align: 64, offset: 512)
!1394 = !DIDerivedType(tag: DW_TAG_member, name: "deadline", scope: !1385, file: !2, baseType: !25, size: 64, align: 64, offset: 576)
!1395 = !DIDerivedType(tag: DW_TAG_member, name: "flags", scope: !1385, file: !2, baseType: !147, size: 32, align: 32, offset: 640)
!1396 = !DIDerivedType(tag: DW_TAG_member, name: "_bitfield_1", scope: !1385, file: !2, baseType: !1005, size: 8, align: 8, offset: 672)
!1397 = !DIDerivedType(tag: DW_TAG_member, name: "dl_timer", scope: !1385, file: !2, baseType: !1398, size: 512, align: 64, offset: 704)
!1398 = !DICompositeType(tag: DW_TAG_structure_type, name: "hrtimer", scope: !196, file: !2, size: 512, align: 64, elements: !1399, templateParams: !15, identifier: "cb3c82c0c2bf2e725a2f64a0088f927e")
!1399 = !{!1400, !1405, !1406, !1424, !1480, !1481, !1482, !1483}
!1400 = !DIDerivedType(tag: DW_TAG_member, name: "node", scope: !1398, file: !2, baseType: !1401, size: 256, align: 64)
!1401 = !DICompositeType(tag: DW_TAG_structure_type, name: "timerqueue_node", scope: !196, file: !2, size: 256, align: 64, elements: !1402, templateParams: !15, identifier: "b931ee23cf7156e9f95b3fe18b3831b7")
!1402 = !{!1403, !1404}
!1403 = !DIDerivedType(tag: DW_TAG_member, name: "node", scope: !1401, file: !2, baseType: !521, size: 192, align: 64)
!1404 = !DIDerivedType(tag: DW_TAG_member, name: "expires", scope: !1401, file: !2, baseType: !536, size: 64, align: 64, offset: 192)
!1405 = !DIDerivedType(tag: DW_TAG_member, name: "_softexpires", scope: !1398, file: !2, baseType: !536, size: 64, align: 64, offset: 256)
!1406 = !DIDerivedType(tag: DW_TAG_member, name: "function", scope: !1398, file: !2, baseType: !1407, size: 64, align: 64, offset: 320)
!1407 = !DICompositeType(tag: DW_TAG_structure_type, name: "Option<unsafe extern \22C\22 fn(*mut bindings::bindings_raw::hrtimer) -> i32>", scope: !153, file: !2, size: 64, align: 64, elements: !1408, templateParams: !15, identifier: "7bbb3e219d163b48f83617dcfb9e82ef")
!1408 = !{!1409}
!1409 = !DICompositeType(tag: DW_TAG_variant_part, scope: !1407, file: !2, size: 64, align: 64, elements: !1410, templateParams: !15, identifier: "f401a42d8bcea69311fba22a28b5f24", discriminator: !1423)
!1410 = !{!1411, !1419}
!1411 = !DIDerivedType(tag: DW_TAG_member, name: "None", scope: !1409, file: !2, baseType: !1412, size: 64, align: 64, extraData: i64 0)
!1412 = !DICompositeType(tag: DW_TAG_structure_type, name: "None", scope: !1407, file: !2, size: 64, align: 64, elements: !15, templateParams: !1413, identifier: "51e6915528d242adf90eeb52e34cfdc9")
!1413 = !{!1414}
!1414 = !DITemplateTypeParameter(name: "T", type: !1415)
!1415 = !DIDerivedType(tag: DW_TAG_pointer_type, name: "unsafe extern \22C\22 fn(*mut bindings::bindings_raw::hrtimer) -> i32", baseType: !1416, size: 64, align: 64, dwarfAddressSpace: 0)
!1416 = !DISubroutineType(types: !1417)
!1417 = !{!253, !1418}
!1418 = !DIDerivedType(tag: DW_TAG_pointer_type, name: "*mut bindings::bindings_raw::hrtimer", baseType: !1398, size: 64, align: 64, dwarfAddressSpace: 0)
!1419 = !DIDerivedType(tag: DW_TAG_member, name: "Some", scope: !1409, file: !2, baseType: !1420, size: 64, align: 64)
!1420 = !DICompositeType(tag: DW_TAG_structure_type, name: "Some", scope: !1407, file: !2, size: 64, align: 64, elements: !1421, templateParams: !1413, identifier: "6677e1228b85978e41663a58264c3f0")
!1421 = !{!1422}
!1422 = !DIDerivedType(tag: DW_TAG_member, name: "__0", scope: !1420, file: !2, baseType: !1415, size: 64, align: 64)
!1423 = !DIDerivedType(tag: DW_TAG_member, scope: !1407, file: !2, baseType: !25, size: 64, align: 64, flags: DIFlagArtificial)
!1424 = !DIDerivedType(tag: DW_TAG_member, name: "base", scope: !1398, file: !2, baseType: !1425, size: 64, align: 64, offset: 384)
!1425 = !DIDerivedType(tag: DW_TAG_pointer_type, name: "*mut bindings::bindings_raw::hrtimer_clock_base", baseType: !1426, size: 64, align: 64, dwarfAddressSpace: 0)
!1426 = !DICompositeType(tag: DW_TAG_structure_type, name: "hrtimer_clock_base", scope: !196, file: !2, size: 512, align: 512, elements: !1427, templateParams: !15, identifier: "89a03940b6d64265b0d78ced35e4cf")
!1427 = !{!1428, !1444, !1445, !1446, !1453, !1454, !1462, !1479}
!1428 = !DIDerivedType(tag: DW_TAG_member, name: "cpu_base", scope: !1426, file: !2, baseType: !1429, size: 64, align: 64)
!1429 = !DIDerivedType(tag: DW_TAG_pointer_type, name: "*mut bindings::bindings_raw::hrtimer_cpu_base", baseType: !1430, size: 64, align: 64, dwarfAddressSpace: 0)
!1430 = !DICompositeType(tag: DW_TAG_structure_type, name: "hrtimer_cpu_base", scope: !196, file: !2, size: 4608, align: 512, elements: !1431, templateParams: !15, identifier: "b72189d27bf989931de55af5d250ba4d")
!1431 = !{!1432, !1433, !1434, !1435, !1436, !1437, !1438, !1439, !1440, !1441, !1442}
!1432 = !DIDerivedType(tag: DW_TAG_member, name: "lock", scope: !1430, file: !2, baseType: !543, size: 32, align: 32)
!1433 = !DIDerivedType(tag: DW_TAG_member, name: "cpu", scope: !1430, file: !2, baseType: !147, size: 32, align: 32, offset: 32)
!1434 = !DIDerivedType(tag: DW_TAG_member, name: "active_bases", scope: !1430, file: !2, baseType: !147, size: 32, align: 32, offset: 64)
!1435 = !DIDerivedType(tag: DW_TAG_member, name: "clock_was_set_seq", scope: !1430, file: !2, baseType: !147, size: 32, align: 32, offset: 96)
!1436 = !DIDerivedType(tag: DW_TAG_member, name: "_bitfield_1", scope: !1430, file: !2, baseType: !1005, size: 8, align: 8, offset: 128)
!1437 = !DIDerivedType(tag: DW_TAG_member, name: "expires_next", scope: !1430, file: !2, baseType: !536, size: 64, align: 64, offset: 192)
!1438 = !DIDerivedType(tag: DW_TAG_member, name: "next_timer", scope: !1430, file: !2, baseType: !1418, size: 64, align: 64, offset: 256)
!1439 = !DIDerivedType(tag: DW_TAG_member, name: "softirq_expires_next", scope: !1430, file: !2, baseType: !536, size: 64, align: 64, offset: 320)
!1440 = !DIDerivedType(tag: DW_TAG_member, name: "softirq_next_timer", scope: !1430, file: !2, baseType: !1418, size: 64, align: 64, offset: 384)
!1441 = !DIDerivedType(tag: DW_TAG_member, name: "__bindgen_padding_0", scope: !1430, file: !2, baseType: !25, size: 64, align: 64, offset: 448)
!1442 = !DIDerivedType(tag: DW_TAG_member, name: "clock_base", scope: !1430, file: !2, baseType: !1443, size: 4096, align: 512, offset: 512)
!1443 = !DICompositeType(tag: DW_TAG_array_type, baseType: !1426, size: 4096, align: 512, elements: !259)
!1444 = !DIDerivedType(tag: DW_TAG_member, name: "index", scope: !1426, file: !2, baseType: !147, size: 32, align: 32, offset: 64)
!1445 = !DIDerivedType(tag: DW_TAG_member, name: "clockid", scope: !1426, file: !2, baseType: !253, size: 32, align: 32, offset: 96)
!1446 = !DIDerivedType(tag: DW_TAG_member, name: "seq", scope: !1426, file: !2, baseType: !1447, size: 32, align: 32, offset: 128)
!1447 = !DICompositeType(tag: DW_TAG_structure_type, name: "seqcount_raw_spinlock", scope: !196, file: !2, size: 32, align: 32, elements: !1448, templateParams: !15, identifier: "28edac6ff9fdeb053ae505c20f2f0d46")
!1448 = !{!1449}
!1449 = !DIDerivedType(tag: DW_TAG_member, name: "seqcount", scope: !1447, file: !2, baseType: !1450, size: 32, align: 32)
!1450 = !DICompositeType(tag: DW_TAG_structure_type, name: "seqcount", scope: !196, file: !2, size: 32, align: 32, elements: !1451, templateParams: !15, identifier: "d82e14f4d2c3a6a82e616a79c8ed3dfe")
!1451 = !{!1452}
!1452 = !DIDerivedType(tag: DW_TAG_member, name: "sequence", scope: !1450, file: !2, baseType: !147, size: 32, align: 32)
!1453 = !DIDerivedType(tag: DW_TAG_member, name: "running", scope: !1426, file: !2, baseType: !1418, size: 64, align: 64, offset: 192)
!1454 = !DIDerivedType(tag: DW_TAG_member, name: "active", scope: !1426, file: !2, baseType: !1455, size: 128, align: 64, offset: 256)
!1455 = !DICompositeType(tag: DW_TAG_structure_type, name: "timerqueue_head", scope: !196, file: !2, size: 128, align: 64, elements: !1456, templateParams: !15, identifier: "4d65579c9c576af12bdc08e409bc46f3")
!1456 = !{!1457}
!1457 = !DIDerivedType(tag: DW_TAG_member, name: "rb_root", scope: !1455, file: !2, baseType: !1458, size: 128, align: 64)
!1458 = !DICompositeType(tag: DW_TAG_structure_type, name: "rb_root_cached", scope: !196, file: !2, size: 128, align: 64, elements: !1459, templateParams: !15, identifier: "ebdb23b4ff35a13a73db96190f26d92a")
!1459 = !{!1460, !1461}
!1460 = !DIDerivedType(tag: DW_TAG_member, name: "rb_root", scope: !1458, file: !2, baseType: !951, size: 64, align: 64)
!1461 = !DIDerivedType(tag: DW_TAG_member, name: "rb_leftmost", scope: !1458, file: !2, baseType: !525, size: 64, align: 64, offset: 64)
!1462 = !DIDerivedType(tag: DW_TAG_member, name: "get_time", scope: !1426, file: !2, baseType: !1463, size: 64, align: 64, offset: 384)
!1463 = !DICompositeType(tag: DW_TAG_structure_type, name: "Option<unsafe extern \22C\22 fn() -> i64>", scope: !153, file: !2, size: 64, align: 64, elements: !1464, templateParams: !15, identifier: "9c27b2fd0b5a26882719698ea61465d1")
!1464 = !{!1465}
!1465 = !DICompositeType(tag: DW_TAG_variant_part, scope: !1463, file: !2, size: 64, align: 64, elements: !1466, templateParams: !15, identifier: "764c215bfe1e28f8ae8be488c3e99270", discriminator: !1478)
!1466 = !{!1467, !1474}
!1467 = !DIDerivedType(tag: DW_TAG_member, name: "None", scope: !1465, file: !2, baseType: !1468, size: 64, align: 64, extraData: i64 0)
!1468 = !DICompositeType(tag: DW_TAG_structure_type, name: "None", scope: !1463, file: !2, size: 64, align: 64, elements: !15, templateParams: !1469, identifier: "afd499dc45ce1faa40ee8991ecd02fb1")
!1469 = !{!1470}
!1470 = !DITemplateTypeParameter(name: "T", type: !1471)
!1471 = !DIDerivedType(tag: DW_TAG_pointer_type, name: "unsafe extern \22C\22 fn() -> i64", baseType: !1472, size: 64, align: 64, dwarfAddressSpace: 0)
!1472 = !DISubroutineType(types: !1473)
!1473 = !{!536}
!1474 = !DIDerivedType(tag: DW_TAG_member, name: "Some", scope: !1465, file: !2, baseType: !1475, size: 64, align: 64)
!1475 = !DICompositeType(tag: DW_TAG_structure_type, name: "Some", scope: !1463, file: !2, size: 64, align: 64, elements: !1476, templateParams: !1469, identifier: "b3182b9fd527cb9bfaf2773bc6fd8b62")
!1476 = !{!1477}
!1477 = !DIDerivedType(tag: DW_TAG_member, name: "__0", scope: !1475, file: !2, baseType: !1471, size: 64, align: 64)
!1478 = !DIDerivedType(tag: DW_TAG_member, scope: !1463, file: !2, baseType: !25, size: 64, align: 64, flags: DIFlagArtificial)
!1479 = !DIDerivedType(tag: DW_TAG_member, name: "offset", scope: !1426, file: !2, baseType: !536, size: 64, align: 64, offset: 448)
!1480 = !DIDerivedType(tag: DW_TAG_member, name: "state", scope: !1398, file: !2, baseType: !94, size: 8, align: 8, offset: 448)
!1481 = !DIDerivedType(tag: DW_TAG_member, name: "is_rel", scope: !1398, file: !2, baseType: !94, size: 8, align: 8, offset: 456)
!1482 = !DIDerivedType(tag: DW_TAG_member, name: "is_soft", scope: !1398, file: !2, baseType: !94, size: 8, align: 8, offset: 464)
!1483 = !DIDerivedType(tag: DW_TAG_member, name: "is_hard", scope: !1398, file: !2, baseType: !94, size: 8, align: 8, offset: 472)
!1484 = !DIDerivedType(tag: DW_TAG_member, name: "inactive_timer", scope: !1385, file: !2, baseType: !1398, size: 512, align: 64, offset: 1216)
!1485 = !DIDerivedType(tag: DW_TAG_member, name: "pi_se", scope: !1385, file: !2, baseType: !1486, size: 64, align: 64, offset: 1728)
!1486 = !DIDerivedType(tag: DW_TAG_pointer_type, name: "*mut bindings::bindings_raw::sched_dl_entity", baseType: !1385, size: 64, align: 64, dwarfAddressSpace: 0)
!1487 = !DIDerivedType(tag: DW_TAG_member, name: "sched_class", scope: !1297, file: !2, baseType: !1488, size: 64, align: 64, offset: 4736)
!1488 = !DIDerivedType(tag: DW_TAG_pointer_type, name: "*mut bindings::bindings_raw::sched_class", baseType: !1489, size: 64, align: 64, dwarfAddressSpace: 0)
!1489 = !DICompositeType(tag: DW_TAG_structure_type, name: "sched_class", scope: !196, file: !2, size: 8, align: 8, elements: !1490, templateParams: !15, identifier: "2a2ebf8ce1363d45fdb1bdef9f864844")
!1490 = !{!1491}
!1491 = !DIDerivedType(tag: DW_TAG_member, name: "_address", scope: !1489, file: !2, baseType: !94, size: 8, align: 8)
!1492 = !DIDerivedType(tag: DW_TAG_member, name: "__bindgen_padding_1", scope: !1297, file: !2, baseType: !632, size: 320, align: 64, offset: 4800)
!1493 = !DIDerivedType(tag: DW_TAG_member, name: "stats", scope: !1297, file: !2, baseType: !1494, align: 8, offset: 5120)
!1494 = !DICompositeType(tag: DW_TAG_structure_type, name: "sched_statistics", scope: !196, file: !2, align: 8, elements: !15, identifier: "844c1f8c23d93469bcb655fe9c5c0f4c")
!1495 = !DIDerivedType(tag: DW_TAG_member, name: "policy", scope: !1297, file: !2, baseType: !147, size: 32, align: 32, offset: 5120)
!1496 = !DIDerivedType(tag: DW_TAG_member, name: "nr_cpus_allowed", scope: !1297, file: !2, baseType: !253, size: 32, align: 32, offset: 5152)
!1497 = !DIDerivedType(tag: DW_TAG_member, name: "cpus_ptr", scope: !1297, file: !2, baseType: !1498, size: 64, align: 64, offset: 5184)
!1498 = !DIDerivedType(tag: DW_TAG_pointer_type, name: "*const bindings::bindings_raw::cpumask", baseType: !1499, size: 64, align: 64, dwarfAddressSpace: 0)
!1499 = !DICompositeType(tag: DW_TAG_structure_type, name: "cpumask", scope: !196, file: !2, size: 64, align: 64, elements: !1500, templateParams: !15, identifier: "8d955c5791e3bde5306e83c60bfe2678")
!1500 = !{!1501}
!1501 = !DIDerivedType(tag: DW_TAG_member, name: "bits", scope: !1499, file: !2, baseType: !1502, size: 64, align: 64)
!1502 = !DICompositeType(tag: DW_TAG_array_type, baseType: !25, size: 64, align: 64, elements: !1009)
!1503 = !DIDerivedType(tag: DW_TAG_member, name: "user_cpus_ptr", scope: !1297, file: !2, baseType: !1504, size: 64, align: 64, offset: 5248)
!1504 = !DIDerivedType(tag: DW_TAG_pointer_type, name: "*mut bindings::bindings_raw::cpumask", baseType: !1499, size: 64, align: 64, dwarfAddressSpace: 0)
!1505 = !DIDerivedType(tag: DW_TAG_member, name: "cpus_mask", scope: !1297, file: !2, baseType: !1499, size: 64, align: 64, offset: 5312)
!1506 = !DIDerivedType(tag: DW_TAG_member, name: "migration_pending", scope: !1297, file: !2, baseType: !387, size: 64, align: 64, offset: 5376)
!1507 = !DIDerivedType(tag: DW_TAG_member, name: "migration_disabled", scope: !1297, file: !2, baseType: !142, size: 16, align: 16, offset: 5440)
!1508 = !DIDerivedType(tag: DW_TAG_member, name: "migration_flags", scope: !1297, file: !2, baseType: !142, size: 16, align: 16, offset: 5456)
!1509 = !DIDerivedType(tag: DW_TAG_member, name: "rcu_read_lock_nesting", scope: !1297, file: !2, baseType: !253, size: 32, align: 32, offset: 5472)
!1510 = !DIDerivedType(tag: DW_TAG_member, name: "rcu_read_unlock_special", scope: !1297, file: !2, baseType: !1511, size: 32, align: 32, offset: 5504)
!1511 = !DICompositeType(tag: DW_TAG_union_type, name: "rcu_special", scope: !196, file: !2, size: 32, align: 32, elements: !1512, templateParams: !15, identifier: "69bf7d88e5ffe83d2451325be7d1fe58")
!1512 = !{!1513, !1520, !1521}
!1513 = !DIDerivedType(tag: DW_TAG_member, name: "b", scope: !1511, file: !2, baseType: !1514, size: 32, align: 8)
!1514 = !DICompositeType(tag: DW_TAG_structure_type, name: "rcu_special__bindgen_ty_1", scope: !196, file: !2, size: 32, align: 8, elements: !1515, templateParams: !15, identifier: "cd6f2e7b58dc502942d3b044fc3fec16")
!1515 = !{!1516, !1517, !1518, !1519}
!1516 = !DIDerivedType(tag: DW_TAG_member, name: "blocked", scope: !1514, file: !2, baseType: !94, size: 8, align: 8)
!1517 = !DIDerivedType(tag: DW_TAG_member, name: "need_qs", scope: !1514, file: !2, baseType: !94, size: 8, align: 8, offset: 8)
!1518 = !DIDerivedType(tag: DW_TAG_member, name: "exp_hint", scope: !1514, file: !2, baseType: !94, size: 8, align: 8, offset: 16)
!1519 = !DIDerivedType(tag: DW_TAG_member, name: "need_mb", scope: !1514, file: !2, baseType: !94, size: 8, align: 8, offset: 24)
!1520 = !DIDerivedType(tag: DW_TAG_member, name: "s", scope: !1511, file: !2, baseType: !147, size: 32, align: 32)
!1521 = !DIDerivedType(tag: DW_TAG_member, name: "_bindgen_union_align", scope: !1511, file: !2, baseType: !147, size: 32, align: 32)
!1522 = !DIDerivedType(tag: DW_TAG_member, name: "rcu_node_entry", scope: !1297, file: !2, baseType: !463, size: 128, align: 64, offset: 5568)
!1523 = !DIDerivedType(tag: DW_TAG_member, name: "rcu_blocked_node", scope: !1297, file: !2, baseType: !1524, size: 64, align: 64, offset: 5696)
!1524 = !DIDerivedType(tag: DW_TAG_pointer_type, name: "*mut bindings::bindings_raw::rcu_node", baseType: !1525, size: 64, align: 64, dwarfAddressSpace: 0)
!1525 = !DICompositeType(tag: DW_TAG_structure_type, name: "rcu_node", scope: !196, file: !2, align: 8, elements: !1526, templateParams: !15, identifier: "ccbf1f241be9900f2e9e12d992fe6159")
!1526 = !{!1527}
!1527 = !DIDerivedType(tag: DW_TAG_member, name: "_unused", scope: !1525, file: !2, baseType: !460, align: 8)
!1528 = !DIDerivedType(tag: DW_TAG_member, name: "rcu_tasks_nvcsw", scope: !1297, file: !2, baseType: !25, size: 64, align: 64, offset: 5760)
!1529 = !DIDerivedType(tag: DW_TAG_member, name: "rcu_tasks_holdout", scope: !1297, file: !2, baseType: !94, size: 8, align: 8, offset: 5824)
!1530 = !DIDerivedType(tag: DW_TAG_member, name: "rcu_tasks_idx", scope: !1297, file: !2, baseType: !94, size: 8, align: 8, offset: 5832)
!1531 = !DIDerivedType(tag: DW_TAG_member, name: "rcu_tasks_idle_cpu", scope: !1297, file: !2, baseType: !253, size: 32, align: 32, offset: 5856)
!1532 = !DIDerivedType(tag: DW_TAG_member, name: "rcu_tasks_holdout_list", scope: !1297, file: !2, baseType: !463, size: 128, align: 64, offset: 5888)
!1533 = !DIDerivedType(tag: DW_TAG_member, name: "sched_info", scope: !1297, file: !2, baseType: !1534, align: 8, offset: 6016)
!1534 = !DICompositeType(tag: DW_TAG_structure_type, name: "sched_info", scope: !196, file: !2, align: 8, elements: !15, identifier: "78fe511a9785db155e90e26ca7fa7a2")
!1535 = !DIDerivedType(tag: DW_TAG_member, name: "tasks", scope: !1297, file: !2, baseType: !463, size: 128, align: 64, offset: 6016)
!1536 = !DIDerivedType(tag: DW_TAG_member, name: "pushable_tasks", scope: !1297, file: !2, baseType: !1537, size: 320, align: 64, offset: 6144)
!1537 = !DICompositeType(tag: DW_TAG_structure_type, name: "plist_node", scope: !196, file: !2, size: 320, align: 64, elements: !1538, templateParams: !15, identifier: "e6a2dcebde2f985fad022b9db6660f95")
!1538 = !{!1539, !1540, !1541}
!1539 = !DIDerivedType(tag: DW_TAG_member, name: "prio", scope: !1537, file: !2, baseType: !253, size: 32, align: 32)
!1540 = !DIDerivedType(tag: DW_TAG_member, name: "prio_list", scope: !1537, file: !2, baseType: !463, size: 128, align: 64, offset: 64)
!1541 = !DIDerivedType(tag: DW_TAG_member, name: "node_list", scope: !1537, file: !2, baseType: !463, size: 128, align: 64, offset: 192)
!1542 = !DIDerivedType(tag: DW_TAG_member, name: "pushable_dl_tasks", scope: !1297, file: !2, baseType: !521, size: 192, align: 64, offset: 6464)
!1543 = !DIDerivedType(tag: DW_TAG_member, name: "mm", scope: !1297, file: !2, baseType: !1544, size: 64, align: 64, offset: 6656)
!1544 = !DIDerivedType(tag: DW_TAG_pointer_type, name: "*mut bindings::bindings_raw::mm_struct", baseType: !1545, size: 64, align: 64, dwarfAddressSpace: 0)
!1545 = !DICompositeType(tag: DW_TAG_structure_type, name: "mm_struct", scope: !196, file: !2, size: 8832, align: 64, elements: !1546, templateParams: !15, identifier: "77dea7ebdc0e957963a67a172e07f5e")
!1546 = !{!1547, !15165}
!1547 = !DIDerivedType(tag: DW_TAG_member, name: "__bindgen_anon_1", scope: !1545, file: !2, baseType: !1548, size: 8832, align: 64)
!1548 = !DICompositeType(tag: DW_TAG_structure_type, name: "mm_struct__bindgen_ty_1", scope: !196, file: !2, size: 8832, align: 64, elements: !1549, templateParams: !15, identifier: "222ce864f22226b31054bbdcd488279")
!1549 = !{!1550, !1562, !15056, !15057, !15058, !15059, !15064, !15065, !15066, !15067, !15068, !15069, !15070, !15071, !15072, !15073, !15074, !15075, !15076, !15077, !15078, !15079, !15080, !15081, !15082, !15083, !15084, !15085, !15086, !15087, !15088, !15089, !15090, !15091, !15092, !15093, !15094, !15095, !15099, !15100, !15105, !15145, !15146, !15147, !15152, !15153, !15154, !15155, !15156, !15164}
!1550 = !DIDerivedType(tag: DW_TAG_member, name: "mm_mt", scope: !1548, file: !2, baseType: !1551, size: 192, align: 64)
!1551 = !DICompositeType(tag: DW_TAG_structure_type, name: "maple_tree", scope: !196, file: !2, size: 192, align: 64, elements: !1552, templateParams: !15, identifier: "ed5dced5c2ae21cd496e1ac7901562c6")
!1552 = !{!1553, !1560, !1561}
!1553 = !DIDerivedType(tag: DW_TAG_member, name: "__bindgen_anon_1", scope: !1551, file: !2, baseType: !1554, size: 32, align: 32)
!1554 = !DICompositeType(tag: DW_TAG_union_type, name: "maple_tree__bindgen_ty_1", scope: !196, file: !2, size: 32, align: 32, elements: !1555, templateParams: !15, identifier: "1e442b94286a756f504f13b311eb92e7")
!1555 = !{!1556, !1557, !1559}
!1556 = !DIDerivedType(tag: DW_TAG_member, name: "ma_lock", scope: !1554, file: !2, baseType: !382, size: 32, align: 32)
!1557 = !DIDerivedType(tag: DW_TAG_member, name: "ma_external_lock", scope: !1554, file: !2, baseType: !1558, align: 8)
!1558 = !DICompositeType(tag: DW_TAG_structure_type, name: "lockdep_map_p", scope: !196, file: !2, align: 8, elements: !15, identifier: "f05192b14e5e2da21b41b22aba39e01c")
!1559 = !DIDerivedType(tag: DW_TAG_member, name: "_bindgen_union_align", scope: !1554, file: !2, baseType: !147, size: 32, align: 32)
!1560 = !DIDerivedType(tag: DW_TAG_member, name: "ma_root", scope: !1551, file: !2, baseType: !387, size: 64, align: 64, offset: 64)
!1561 = !DIDerivedType(tag: DW_TAG_member, name: "ma_flags", scope: !1551, file: !2, baseType: !147, size: 32, align: 32, offset: 128)
!1562 = !DIDerivedType(tag: DW_TAG_member, name: "get_unmapped_area", scope: !1548, file: !2, baseType: !1563, size: 64, align: 64, offset: 192)
!1563 = !DICompositeType(tag: DW_TAG_structure_type, name: "Option<unsafe extern \22C\22 fn(*mut bindings::bindings_raw::file, u64, u64, u64, u64) -> u64>", scope: !153, file: !2, size: 64, align: 64, elements: !1564, templateParams: !15, identifier: "d7804e607b5f50ee92aaa6fbb472c32")
!1564 = !{!1565}
!1565 = !DICompositeType(tag: DW_TAG_variant_part, scope: !1563, file: !2, size: 64, align: 64, elements: !1566, templateParams: !15, identifier: "459019710effead9151ebdc54bce822", discriminator: !15055)
!1566 = !{!1567, !15051}
!1567 = !DIDerivedType(tag: DW_TAG_member, name: "None", scope: !1565, file: !2, baseType: !1568, size: 64, align: 64, extraData: i64 0)
!1568 = !DICompositeType(tag: DW_TAG_structure_type, name: "None", scope: !1563, file: !2, size: 64, align: 64, elements: !15, templateParams: !1569, identifier: "2b1e2b1122be948a8369ad87708b8b64")
!1569 = !{!1570}
!1570 = !DITemplateTypeParameter(name: "T", type: !1571)
!1571 = !DIDerivedType(tag: DW_TAG_pointer_type, name: "unsafe extern \22C\22 fn(*mut bindings::bindings_raw::file, u64, u64, u64, u64) -> u64", baseType: !1572, size: 64, align: 64, dwarfAddressSpace: 0)
!1572 = !DISubroutineType(types: !1573)
!1573 = !{!25, !1574, !25, !25, !25, !25}
!1574 = !DIDerivedType(tag: DW_TAG_pointer_type, name: "*mut bindings::bindings_raw::file", baseType: !1575, size: 64, align: 64, dwarfAddressSpace: 0)
!1575 = !DICompositeType(tag: DW_TAG_structure_type, name: "file", scope: !196, file: !2, size: 1792, align: 64, elements: !1576, templateParams: !15, identifier: "2250e5cd6a06c2b59a6efd34b7d3adf8")
!1576 = !{!1577, !1584, !15026, !15027, !15028, !15029, !15030, !15031, !15032, !15033, !15034, !15043, !15044, !15045, !15046, !15047, !15048, !15049, !15050}
!1577 = !DIDerivedType(tag: DW_TAG_member, name: "__bindgen_anon_1", scope: !1575, file: !2, baseType: !1578, size: 128, align: 64)
!1578 = !DICompositeType(tag: DW_TAG_union_type, name: "file__bindgen_ty_1", scope: !196, file: !2, size: 128, align: 64, elements: !1579, templateParams: !15, identifier: "65a04563f987f4c1ce4653131ac13e16")
!1579 = !{!1580, !1581, !1582, !1583}
!1580 = !DIDerivedType(tag: DW_TAG_member, name: "f_llist", scope: !1578, file: !2, baseType: !1316, size: 64, align: 64)
!1581 = !DIDerivedType(tag: DW_TAG_member, name: "f_rcuhead", scope: !1578, file: !2, baseType: !598, size: 128, align: 64)
!1582 = !DIDerivedType(tag: DW_TAG_member, name: "f_iocb_flags", scope: !1578, file: !2, baseType: !147, size: 32, align: 32)
!1583 = !DIDerivedType(tag: DW_TAG_member, name: "_bindgen_union_align", scope: !1578, file: !2, baseType: !995, size: 128, align: 64)
!1584 = !DIDerivedType(tag: DW_TAG_member, name: "f_path", scope: !1575, file: !2, baseType: !1585, size: 128, align: 64, offset: 128)
!1585 = !DICompositeType(tag: DW_TAG_structure_type, name: "path", scope: !196, file: !2, size: 128, align: 64, elements: !1586, templateParams: !15, identifier: "d6877eae193ceb0f415458576defae6e")
!1586 = !{!1587, !15025}
!1587 = !DIDerivedType(tag: DW_TAG_member, name: "mnt", scope: !1585, file: !2, baseType: !1588, size: 64, align: 64)
!1588 = !DIDerivedType(tag: DW_TAG_pointer_type, name: "*mut bindings::bindings_raw::vfsmount", baseType: !1589, size: 64, align: 64, dwarfAddressSpace: 0)
!1589 = !DICompositeType(tag: DW_TAG_structure_type, name: "vfsmount", scope: !196, file: !2, size: 256, align: 64, elements: !1590, templateParams: !15, identifier: "5eb03ddadccf24829c66d730e0406fba")
!1590 = !{!1591, !15022, !15023, !15024}
!1591 = !DIDerivedType(tag: DW_TAG_member, name: "mnt_root", scope: !1589, file: !2, baseType: !1592, size: 64, align: 64)
!1592 = !DIDerivedType(tag: DW_TAG_pointer_type, name: "*mut bindings::bindings_raw::dentry", baseType: !1593, size: 64, align: 64, dwarfAddressSpace: 0)
!1593 = !DICompositeType(tag: DW_TAG_structure_type, name: "dentry", scope: !196, file: !2, size: 1536, align: 64, elements: !1594, templateParams: !15, identifier: "715834e1a2f62667fadb1f00983b0702")
!1594 = !{!1595, !1596, !1600, !1607, !1608, !1623, !14989, !14990, !15003, !15004, !15005, !15006, !15007, !15013, !15014, !15015}
!1595 = !DIDerivedType(tag: DW_TAG_member, name: "d_flags", scope: !1593, file: !2, baseType: !147, size: 32, align: 32)
!1596 = !DIDerivedType(tag: DW_TAG_member, name: "d_seq", scope: !1593, file: !2, baseType: !1597, size: 32, align: 32, offset: 32)
!1597 = !DICompositeType(tag: DW_TAG_structure_type, name: "seqcount_spinlock", scope: !196, file: !2, size: 32, align: 32, elements: !1598, templateParams: !15, identifier: "99eb86236231b648d03df12c726afa2")
!1598 = !{!1599}
!1599 = !DIDerivedType(tag: DW_TAG_member, name: "seqcount", scope: !1597, file: !2, baseType: !1450, size: 32, align: 32)
!1600 = !DIDerivedType(tag: DW_TAG_member, name: "d_hash", scope: !1593, file: !2, baseType: !1601, size: 128, align: 64, offset: 64)
!1601 = !DICompositeType(tag: DW_TAG_structure_type, name: "hlist_bl_node", scope: !196, file: !2, size: 128, align: 64, elements: !1602, templateParams: !15, identifier: "2b8082ec13d85ee118f7041d01ad1edb")
!1602 = !{!1603, !1605}
!1603 = !DIDerivedType(tag: DW_TAG_member, name: "next", scope: !1601, file: !2, baseType: !1604, size: 64, align: 64)
!1604 = !DIDerivedType(tag: DW_TAG_pointer_type, name: "*mut bindings::bindings_raw::hlist_bl_node", baseType: !1601, size: 64, align: 64, dwarfAddressSpace: 0)
!1605 = !DIDerivedType(tag: DW_TAG_member, name: "pprev", scope: !1601, file: !2, baseType: !1606, size: 64, align: 64, offset: 64)
!1606 = !DIDerivedType(tag: DW_TAG_pointer_type, name: "*mut *mut bindings::bindings_raw::hlist_bl_node", baseType: !1604, size: 64, align: 64, dwarfAddressSpace: 0)
!1607 = !DIDerivedType(tag: DW_TAG_member, name: "d_parent", scope: !1593, file: !2, baseType: !1592, size: 64, align: 64, offset: 192)
!1608 = !DIDerivedType(tag: DW_TAG_member, name: "d_name", scope: !1593, file: !2, baseType: !1609, size: 128, align: 64, offset: 256)
!1609 = !DICompositeType(tag: DW_TAG_structure_type, name: "qstr", scope: !196, file: !2, size: 128, align: 64, elements: !1610, templateParams: !15, identifier: "6a40cd2edf4edce519325c49f977f1c9")
!1610 = !{!1611, !1621}
!1611 = !DIDerivedType(tag: DW_TAG_member, name: "__bindgen_anon_1", scope: !1609, file: !2, baseType: !1612, size: 64, align: 64)
!1612 = !DICompositeType(tag: DW_TAG_union_type, name: "qstr__bindgen_ty_1", scope: !196, file: !2, size: 64, align: 64, elements: !1613, templateParams: !15, identifier: "8cf1808a868c64307125a72c287f57f7")
!1613 = !{!1614, !1619, !1620}
!1614 = !DIDerivedType(tag: DW_TAG_member, name: "__bindgen_anon_1", scope: !1612, file: !2, baseType: !1615, size: 64, align: 32)
!1615 = !DICompositeType(tag: DW_TAG_structure_type, name: "qstr__bindgen_ty_1__bindgen_ty_1", scope: !196, file: !2, size: 64, align: 32, elements: !1616, templateParams: !15, identifier: "205cc754b08fc6c743d764927b7531ca")
!1616 = !{!1617, !1618}
!1617 = !DIDerivedType(tag: DW_TAG_member, name: "hash", scope: !1615, file: !2, baseType: !147, size: 32, align: 32)
!1618 = !DIDerivedType(tag: DW_TAG_member, name: "len", scope: !1615, file: !2, baseType: !147, size: 32, align: 32, offset: 32)
!1619 = !DIDerivedType(tag: DW_TAG_member, name: "hash_len", scope: !1612, file: !2, baseType: !25, size: 64, align: 64)
!1620 = !DIDerivedType(tag: DW_TAG_member, name: "_bindgen_union_align", scope: !1612, file: !2, baseType: !25, size: 64, align: 64)
